******************************************************************************
                  TI ARM Linker PC v16.9.6                     
******************************************************************************
>> Linked Mon Apr 01 14:41:44 2019

OUTPUT FILE NAME:   <project_zero_stack_cc2650.out>
ENTRY POINT SYMBOL: "startup_entry"  address: 0000f001


MEMORY CONFIGURATION

         name            origin    length      used     unused   attr    fill
----------------------  --------  ---------  --------  --------  ----  --------
  FLASH                 00000000   0001f000  0000fea0  0000f160  R  X
  SRAM                  20000000   000048e7  00000594  00004353  RW X


SEGMENT ALLOCATION MAP

run origin  load origin   length   init length attrs members
----------  ----------- ---------- ----------- ----- -------
0000f000    0000f000    0000eea0   0000eea0    r-x
  0000f000    0000f000    00000354   00000354    r-x EntrySection
  0000f354    0000f354    0000df64   0000df64    r-x .text
  0001d2b8    0001d2b8    000006f8   000006f8    r-- .const
  0001d9b0    0001d9b0    0000006e   0000006e    r-- .rodata
  0001da20    0001da20    00000480   00000480    r-- .cinit
0001e000    0001e000    00001000   00001000    r--
  0001e000    0001e000    00001000   00001000    r-- .TI.bound:NV_FLASH
20004348    20004348    00000598   00000000    rw-
  20004348    20004348    00000144   00000000    rw- .bss
  20004490    20004490    00000450   00000000    rw- .data


SECTION ALLOCATION MAP

 output                                  attributes/
section   page    origin      length       input sections
--------  ----  ----------  ----------   ----------------
EntrySection 
*          0    0000f000    00000354     
                  0000f000    0000029c     icall_startup.obj (EntrySection:startup_entry)
                  0000f29c    00000008     rtsv7M3_T_le_eabi.lib : autoinit.obj (.tramp.__TI_auto_init.1)
                  0000f2a4    00000008     host_pxxx.a : l2cap_if.o (.tramp.L2CAP_SetUserConfig.1)
                  0000f2ac    00000008     <whole-program> (.tramp.ICall_enrollService$21.1)
                  0000f2b4    00000008     <whole-program> (.tramp.halAssertHandlerExt.1)
                  0000f2bc    00000008     <whole-program> (.tramp.HalFlashRead.1)
                  0000f2c4    00000008     <whole-program> (.tramp.findOffset$13.1)
                  0000f2cc    00000008     <whole-program> (.tramp.compactPage$13.1)
                  0000f2d4    00000008     <whole-program> (.tramp.erasePage$13.1)
                  0000f2dc    00000008     <whole-program> (.tramp.setActivePage$13.1)
                  0000f2e4    00000008     <whole-program> (.tramp.ICall_getTicks$14.1)
                  0000f2ec    00000008     <whole-program> (.tramp.osal_mem_alloc.1)
                  0000f2f4    00000008     <whole-program> (.tramp.osal_memset.1)
                  0000f2fc    00000008     cc2640_ctrl_pxxx.a : ll_patch.o (.tramp.LL_Init.1)
                  0000f304    00000008     cc26xx_hci_tl_none.a : hci_tl.o (.tramp.HCI_Init.1)
                  0000f30c    00000008     host_pxxx.a : l2cap_task.o (.tramp.L2CAP_Init.1)
                  0000f314    00000008                 : gap_task.o (.tramp.GAP_Init.1)
                  0000f31c    00000008                 : sm_task.o (.tramp.SM_Init.1)
                  0000f324    00000008                 : gatt_task.o (.tramp.GATT_Init.1)
                  0000f32c    00000008                 : gattservapp.o (.tramp.GATTServApp_Init.1)
                  0000f334    00000008                 : gap_task.o (.tramp.GAP_RegisterBondMgrCBs.1)
                  0000f33c    00000008     <whole-program> (.tramp.gapBondMgrReadBonds$16.1)
                  0000f344    00000008     <whole-program> (.tramp.osal_snv_read.1)
                  0000f34c    00000008     <whole-program> (.tramp.osal_start_system.1)

.text      0    0000f354    0000df64     
                  0000f354    000001ec     host_pxxx.a : att_server.o (.text)
                  0000f540    000005cc                 : att_util.o (.text)
                  0000fb0c    00000348                 : gap_configmgr.o (.text)
                  0000fe54    000000b0                 : gap_devmgr.o (.text)
                  0000ff04    000009b8                 : gap_linkmgr.o (.text)
                  000108bc    00000624                 : gap_peridevmgr.o (.text)
                  00010ee0    00000110                 : gap_perilinkmgr.o (.text)
                  00010ff0    000002ec                 : gap_task.o (.text)
                  000112dc    0000032c                 : gapgattserver.o (.text)
                  00011608    00000b16                 : gatt_server.o (.text)
                  0001211e    00000002     onboard.obj (.text:Onboard_soft_reset)
                  00012120    000002f6     host_pxxx.a : gatt_task.o (.text)
                  00012416    00000002     hal_assert.obj (.text:halAssertHandler)
                  00012418    0000013e     host_pxxx.a : gatt_uuid.o (.text)
                  00012556    00000002     hal_assert.obj (.text:halAssertSpinlock)
                  00012558    00000fcc     host_pxxx.a : gattservapp.o (.text)
                  00013524    0000017e                 : l2cap_if.o (.text)
                  000136a2    00000002     rtsv7M3_T_le_eabi.lib : startup.obj (.text)
                  000136a4    000002b0     host_pxxx.a : l2cap_task.o (.text)
                  00013954    0000068c                 : l2cap_util.o (.text)
                  00013fe0    000002ec                 : linkdb.o (.text)
                  000142cc    000006a0                 : sm_mgr.o (.text)
                  0001496c    000007e4                 : sm_pairing.o (.text)
                  00015150    00000570                 : sm_rsppairing.o (.text)
                  000156c0    000000e8                 : sm_task.o (.text)
                  000157a8    0000039c                 : smp.o (.text)
                  00015b44    000004f4     cc2640_ctrl_pxxx.a : ble_patch.o (.text)
                  00016038    000000a8                        : hci_data_patch.o (.text)
                  000160e0    0000052c                        : hci_event_patch.o (.text)
                  0001660c    00000308                        : hci_patch.o (.text)
                  00016914    00000428                        : ll_adv_end_causes_patch.o (.text)
                  00016d3c    00000c08                        : ll_common_patch.o (.text)
                  00017944    0000014c                        : ll_enc_patch.o (.text)
                  00017a90    0000171c                        : ll_patch.o (.text)
                  000191ac    00000010                        : ll_rat_patch.o (.text)
                  000191bc    000001a8                        : ll_scheduler_patch.o (.text)
                  00019364    000006fe                        : ll_slave_end_causes_patch.o (.text)
                  00019a62    00000002     --HOLE-- [fill = 0]
                  00019a64    00000046                        : ll_sleep.o (.text)
                  00019aaa    000000ae                        : ll_wl_patch.o (.text)
                  00019b58    000003c8                        : ll_isr.o (.text)
                  00019f20    000000a8     cc26xx_hci_tl_none.a : hci_tl.o (.text)
                  00019fc8    0000000c     driverlib.lib : cpu.obj (.text:NOROM_CPUcpsie)
                  00019fd4    0000000c                   : cpu.obj (.text:NOROM_CPUcpsid)
                  00019fe0    00000070     rtsv7M3_T_le_eabi.lib : autoinit.obj (.text)
                  0001a050    00000018                           : ll_mul_t2.obj (.text)
                  0001a068    0000009c                           : memcpy_t2.obj (.text)
                  0001a104    0000007a                           : memset_t2.obj (.text)
                  0001a17e    000001f4                           : ull_div_t2.obj (.text)
                  0001a372    00000002     --HOLE-- [fill = 0]
                  0001a374    00000020     osal_timers.obj (.text:osalFindTimer)
                  0001a394    00000048     osal_timers.obj (.text:osalAddTimer)
                  0001a3dc    00000038     hal_trng_wrapper.obj (.text:HalTRNG_InitTRNG)
                  0001a414    00000068     driverlib.lib : interrupt.obj (.text:NOROM_IntDisable)
                  0001a47c    0000005c                   : interrupt.obj (.text:NOROM_IntEnable)
                  0001a4d8    00000010     rom_init.obj (.text:IntMasterDisable$22)
                  0001a4e8    00000010     rom_init.obj (.text:IntMasterEnable$22)
                  0001a4f8    00000024     osal_bufmgr.obj (.text:bm_desc_from_payload$8)
                  0001a51c    00000028     osal_bufmgr.obj (.text:osal_bm_adjust_header)
                  0001a544    00000024     osal.obj (.text:osal_msg_allocate)
                  0001a568    0000000c     osal.obj (.text:osal_self)
                  0001a574    00000020     osal.obj (.text:osal_msg_deallocate)
                  0001a594    0000001c     osal.obj (.text:osal_proxy2alien$7)
                  0001a5b0    00000016     rom_init.obj (.text:ROM_Spinlock)
                  0001a5c6    00000004     osal.obj (.text:osal_memset)
                  0001a5ca    00000018     osal.obj (.text:osal_memcpy)
                  0001a5e2    00000002     --HOLE-- [fill = 0]
                  0001a5e4    00000020     hal_flash_wrapper.obj (.text:HalFlashGetAddress)
                  0001a604    00000030     osal_timers.obj (.text:osal_get_timeoutEx)
                  0001a634    00000094     osal_cbtimer.obj (.text:osal_CbTimerProcessEvent)
                  0001a6c8    00000030     hal_flash_wrapper.obj (.text:HalFlashRead)
                  0001a6f8    00000058     osal_snv_wrapper.obj (.text:findItem$13)
                  0001a750    0000001e     osal_snv_wrapper.obj (.text:osal_snv_read)
                  0001a76e    0000001a     osal.obj (.text:osal_isbufset)
                  0001a788    0000002c     gapbondmgr.obj (.text:gapBondMgrGetPublicAddr$16)
                  0001a7b4    00000020     osal.obj (.text:osal_memcmp)
                  0001a7d4    0000002c     gapbondmgr.obj (.text:gapBondMgrFindAddr$16)
                  0001a800    000000d4     gapbondmgr.obj (.text:GAPBondMgr_ResolveAddr)
                  0001a8d4    0000001e     gapbondmgr.obj (.text:gapBondMgrInvertCharCfgItem$16)
                  0001a8f2    00000018     gapbondmgr.obj (.text:gapBondMgrFindCharCfgItem$16)
                  0001a90a    00000002     --HOLE-- [fill = 0]
                  0001a90c    00000014     driverlib.lib : vims.obj (.text:NOROM_VIMSModeGet)
                  0001a920    0000002c     osal_snv_wrapper.obj (.text:disableCache$13)
                  0001a94c    0000001c     driverlib.lib : flash.obj (.text:NOROM_FlashProgram)
                  0001a968    0000000a     hal_flash_wrapper.obj (.text:HalFlashWrite)
                  0001a972    00000002     --HOLE-- [fill = 0]
                  0001a974    0000001c     osal_snv_wrapper.obj (.text:enableCache$13)
                  0001a990    00000088     osal_snv_wrapper.obj (.text:writeWord$13)
                  0001aa18    00000010     osal_snv_wrapper.obj (.text:setXferPage$13)
                  0001aa28    0000001c     driverlib.lib : flash.obj (.text:NOROM_FlashSectorErase)
                  0001aa44    00000040     osal_snv_wrapper.obj (.text:erasePage$13)
                  0001aa84    00000014     osal_snv_wrapper.obj (.text:setActivePage$13)
                  0001aa98    0000011c     osal_snv_wrapper.obj (.text:compactPage$13)
                  0001abb4    000000f8     osal_snv_wrapper.obj (.text:osal_snv_write)
                  0001acac    0000009e     gapbondmgr.obj (.text:gapBondMgrUpdateCharCfg$16)
                  0001ad4a    00000042     gapbondmgr.obj (.text:GAPBondMgr_UpdateCharCfg)
                  0001ad8c    0000001c     gapbondmgr.obj (.text:gapBondFreeAuthEvt$16)
                  0001ada8    00000030     gapbondmgr.obj (.text:gapBondMgr_SyncWhiteList$16)
                  0001add8    00000028     gapbondmgr.obj (.text:gapBondMgrBondTotal$16)
                  0001ae00    0000001e     gapbondmgr.obj (.text:gapBondSetupPrivFlag$16)
                  0001ae1e    00000002     --HOLE-- [fill = 0]
                  0001ae20    0000004c     gapbondmgr.obj (.text:gapBondMgrUpdateLruBondList$16)
                  0001ae6c    00000154     gapbondmgr.obj (.text:gapBondMgrAddBond$16)
                  0001afc0    000000dc     gapbondmgr.obj (.text:gapBondMgrAuthenticate$16)
                  0001b09c    000000e4     gapbondmgr.obj (.text:gapBondMgrEraseBonding$16)
                  0001b180    00000016     gapbondmgr.obj (.text:gapBondMgrEraseAllBondings$16)
                  0001b196    00000002     --HOLE-- [fill = 0]
                  0001b198    00000028     osal_snv_wrapper.obj (.text:osal_snv_compact)
                  0001b1c0    00000058     gapbondmgr.obj (.text:gapBondMgrReadBonds$16)
                  0001b218    00000050     gapbondmgr.obj (.text:GAPBondMgr_LinkTerm)
                  0001b268    00000190     gapbondmgr.obj (.text:GAPBondMgr_ProcessGAPMsg)
                  0001b3f8    00000144     gapbondmgr.obj (.text:GAPBondMgr_ProcessEvent)
                  0001b53c    00000094     osal.obj (.text:osal_msg_receive)
                  0001b5d0    0000006c     gapbondmgr.obj (.text:gapBondMgrBondReq$16)
                  0001b63c    000000fc     gapbondmgr.obj (.text:GAPBondMgr_LinkEst)
                  0001b738    00000054     ble_dispatch.obj (.text:sendGapCmdStatus$5)
                  0001b78c    0000007c     ble_dispatch.obj (.text:checkNVLen$5)
                  0001b808    0000001c     osal.obj (.text:osal_revmemcpy)
                  0001b824    0000021c     ble_dispatch.obj (.text:processICallLL$5)
                  0001ba40    0000087c     ble_dispatch.obj (.text:bleDispatch_ProcessEvent)
                  0001c2bc    00000024     osal_pwrmgr.obj (.text:ICall_pwrUpdActivityCounter$12)
                  0001c2e0    00000070     osal_pwrmgr.obj (.text:osal_pwrmgr_task_state)
                  0001c350    0000009c     osal.obj (.text:osal_msg_enqueue_push$7)
                  0001c3ec    00000060     osal.obj (.text:osal_msg_send)
                  0001c44c    00000034     osal.obj (.text:ICall_send$7)
                  0001c480    000000ac     osal.obj (.text:osal_set_event)
                  0001c52c    00000020     osal_timers.obj (.text:ICall_getTicks$14)
                  0001c54c    000000e8     osal_timers.obj (.text:osalTimerUpdate)
                  0001c634    000000a0     osal_timers.obj (.text:osal_timer_refTimeUpdate)
                  0001c6d4    00000044     osal_timers.obj (.text:osal_start_timerEx)
                  0001c718    00000034     osal_timers.obj (.text:osal_stop_timerEx)
                  0001c74c    00000034     osal.obj (.text:osal_clear_event)
                  0001c780    00000040     hal_trng_wrapper.obj (.text:HalTRNG_GetTRNG)
                  0001c7c0    00000020     osal.obj (.text:ICall_signal$7)
                  0001c7e0    0000002c     osal.obj (.text:osal_msec_timer_cback$7)
                  0001c80c    0000003c     osal_timers.obj (.text:osal_start_reload_timer)
                  0001c848    00000028     osal_memory_icall.obj (.text:osal_mem_alloc)
                  0001c870    0000003c     osal_bufmgr.obj (.text:osal_bm_alloc)
                  0001c8ac    0000002c     ble_dispatch.obj (.text:bleDispatch_BMAlloc)
                  0001c8d8    00000020     osal_memory_icall.obj (.text:osal_mem_free)
                  0001c8f8    0000004c     osal_bufmgr.obj (.text:osal_bm_free)
                  0001c944    00000018     ble_dispatch.obj (.text:bleDispatch_BMFree)
                  0001c95c    0000001c     hal_assert.obj (.text:halAssertHandlerExt)
                  0001c978    00000024     osal.obj (.text:ICall_abort$7)
                  0001c99c    00000030     osal.obj (.text:osal_alien2proxy$7)
                  0001c9cc    00000024     osal.obj (.text:osal_service_entry)
                  0001c9f0    00000038     osal_icall_ble.obj (.text:ICall_enrollService$21)
                  0001ca28    0000002c     osal_snv_wrapper.obj (.text:findOffset$13)
                  0001ca54    00000040     osal.obj (.text:ICall_setTimer$7)
                  0001ca94    00000028     osal_timers.obj (.text:osal_next_timeout)
                  0001cabc    00000040     osal.obj (.text:ICall_setTimerMSecs$7)
                  0001cafc    00000168     osal.obj (.text:osal_start_system)
                  0001cc64    00000014     osal.obj (.text:osal_strlen)
                  0001cc78    00000010     osal.obj (.text:osal_rand)
                  0001cc88    0000001c     osal.obj (.text:osal_memdup)
                  0001cca4    0000002e     osal.obj (.text:osal_build_uint32)
                  0001ccd2    00000018     osal.obj (.text:osal_buffer_uint32)
                  0001ccea    00000002     --HOLE-- [fill = 0]
                  0001ccec    00000058     osal_cbtimer.obj (.text:osal_CbTimerStop)
                  0001cd44    0000009c     osal_cbtimer.obj (.text:cbTimerSetup$9)
                  0001cde0    0000000c     osal_cbtimer.obj (.text:osal_CbTimerStart)
                  0001cdec    0000004c     rtsv7M3_T_le_eabi.lib : cpy_tbl.obj (.text)
                  0001ce38    0000000c                           : copy_zero_init.obj (.text:decompress:ZI)
                  0001ce44    0000000e                           : copy_decompress_none.obj (.text:decompress:none)
                  0001ce52    00000068                           : copy_decompress_lzss.obj (.text:decompress:lzss)
                  0001ceba    00000002     --HOLE-- [fill = 0]
                  0001cebc    00000020     gattservapp_util.obj (.text:gattServApp_FindCharCfgItem$17)
                  0001cedc    00000010     gattservapp_util.obj (.text:GATTServApp_ReadCharCfg)
                  0001ceec    00000034     gattservapp_util.obj (.text:GATTServApp_InitCharCfg)
                  0001cf20    00000008     ble_rom_patch.symbols (.tramp.HCI_ReadBDADDRCmd.1)
                  0001cf28    00000008     ble_rom_patch.symbols (.tramp.HCI_LE_SetRandomAddressCmd.1)
                  0001cf30    00000008     ble_rom_patch.symbols (.tramp.LL_ReadBDADDR.1)
                  0001cf38    00000008     ble_rom_patch.symbols (.tramp.HCI_DisconnectCmd.1)
                  0001cf40    00000008     ble_rom_patch.symbols (.tramp.HCI_LE_SetAdvDataCmd.1)
                  0001cf48    00000008     ble_rom_patch.symbols (.tramp.HCI_LE_SetScanRspDataCmd.1)
                  0001cf50    00000008     ble_rom_patch.symbols (.tramp.HCI_LE_SetAdvEnableCmd.1)
                  0001cf58    00000008     ble_rom_patch.symbols (.tramp.HCI_LE_SetAdvParamCmd.1)
                  0001cf60    00000008     ble_rom_patch.symbols (.tramp.HCI_SetControllerToHostFlowCtrlCmd.1)
                  0001cf68    00000008     ble_rom_patch.symbols (.tramp.HCI_HostBufferSizeCmd.1)
                  0001cf70    00000008     ble_rom_patch.symbols (.tramp.HCI_HostNumCompletedPktCmd.1)
                  0001cf78    00000008     ble_rom_patch.symbols (.tramp.HCI_SendDataPkt.1)
                  0001cf80    00000008     ble_rom_patch.symbols (.tramp.HCI_bm_alloc.1)
                  0001cf88    00000008     ble_rom_patch.symbols (.tramp.LL_Encrypt.1)
                  0001cf90    00000008     ble_rom_patch.symbols (.tramp.HCI_LE_LtkReqReplyCmd.1)
                  0001cf98    00000008     ble_rom_patch.symbols (.tramp.HCI_LE_LtkReqNegReplyCmd.1)
                  0001cfa0    00000008     ble_rom_patch.symbols (.tramp.llMemCopySrc.1)
                  0001cfa8    00000008     ble_rom_patch.symbols (.tramp.LL_ENC_ReverseBytes.1)
                  0001cfb0    00000008     ble_rom_patch.symbols (.tramp.LL_ENC_GenDeviceSKD.1)
                  0001cfb8    00000008     ble_rom_patch.symbols (.tramp.LL_ENC_GenDeviceIV.1)
                  0001cfc0    00000008     ble_rom_patch.symbols (.tramp.llEnqueueCtrlPkt.1)
                  0001cfc8    00000008     ble_rom_patch.symbols (.tramp.llSetupUnknownRsp.1)
                  0001cfd0    00000008     ble_rom_patch.symbols (.tramp.LL_RX_bm_alloc.1)
                  0001cfd8    00000008     ble_rom_patch.symbols (.tramp.llPatchCM0.1)
                  0001cfe0    00000008     ble_rom_patch.symbols (.tramp.RFHAL_AllocRatChan.1)
                  0001cfe8    00000008     ble_rom_patch.symbols (.tramp.RFHAL_RegisterRatChanCallback.1)
                  0001cff0    00000008     ble_rom_patch.symbols (.tramp.LL_CtrlToHostFlowControl.1)
                  0001cff8    00000008     ble_rom_patch.symbols (.tramp.HCI_SendCommandCompleteEvent.1)
                  0001d000    00000008     ble_rom_patch.symbols (.tramp.HCI_CommandCompleteEvent.1)
                  0001d008    00000008     ble_rom_patch.symbols (.tramp.HCI_CommandStatusEvent.1)
                  0001d010    00000008     ble_rom_patch.symbols (.tramp.LL_EXT_ResetSystem.1)
                  0001d018    00000008     ble_rom_patch.symbols (.tramp.LL_ReadLocalVersionInfo.1)
                  0001d020    00000008     ble_rom_patch.symbols (.tramp.llFreeTask.1)
                  0001d028    00000008     ble_rom_patch.symbols (.tramp.LL_ENC_GeneratePseudoRandNum.1)
                  0001d030    00000008     ble_rom_patch.symbols (.tramp.llScheduler.1)
                  0001d038    00000008     ble_rom_patch.symbols (.tramp.llConvertLstoToEvent.1)
                  0001d040    00000008     ble_rom_patch.symbols (.tramp.llConvertCtrlProcTimeoutToEvent.1)
                  0001d048    00000008     ble_rom_patch.symbols (.tramp.llCalcScaFactor.1)
                  0001d050    00000008     ble_rom_patch.symbols (.tramp.llConnTerminate.1)
                  0001d058    00000008     ble_rom_patch.symbols (.tramp.RFHAL_InitDataQueue.1)
                  0001d060    00000008     ble_rom_patch.symbols (.tramp.llEventDelta.1)
                  0001d068    00000008     ble_rom_patch.symbols (.tramp.LL_TX_bm_alloc.1)
                  0001d070    00000008     ble_rom_patch.symbols (.tramp.RFHAL_FreeNextTxDataEntry.1)
                  0001d078    00000008     ble_rom_patch.symbols (.tramp.RFHAL_GetNextDataEntry.1)
                  0001d080    00000008     ble_rom_patch.symbols (.tramp.RFHAL_GetTempDataEntry.1)
                  0001d088    00000008     ble_rom_patch.symbols (.tramp.llReleaseConnId.1)
                  0001d090    00000008     ble_rom_patch.symbols (.tramp.llTimeCompare.1)
                  0001d098    00000008     ble_rom_patch.symbols (.tramp.HCI_HardwareErrorEvent.1)
                  0001d0a0    00000008     ble_rom_patch.symbols (.tramp.llGetCurrentTask.1)
                  0001d0a8    00000008     ble_rom_patch.symbols (.tramp.llTimeDelta.1)
                  0001d0b0    00000008     ble_rom_patch.symbols (.tramp.llSetupRejectInd.1)
                  0001d0b8    00000008     ble_rom_patch.symbols (.tramp.LL_ENC_Init.1)
                  0001d0c0    00000008     ble_rom_patch.symbols (.tramp.LL_ENC_LoadKey.1)
                  0001d0c8    00000008     ble_rom_patch.symbols (.tramp.LL_ENC_GenerateNonce.1)
                  0001d0d0    00000008     ble_rom_patch.symbols (.tramp.LL_ENC_EncryptMsg.1)
                  0001d0d8    00000008     ble_rom_patch.symbols (.tramp.LL_ENC_DecryptMsg.1)
                  0001d0e0    00000008     ble_rom_patch.symbols (.tramp.LL_ENC_GenerateTrueRandNum.1)
                  0001d0e8    00000008     ble_rom_patch.symbols (.tramp.WL_Init.1)
                  0001d0f0    00000008     ble_rom_patch.symbols (.tramp.LL_ClearWhiteList.1)
                  0001d0f8    00000008     ble_rom_patch.symbols (.tramp.llReleaseAllConnId.1)
                  0001d100    00000008     ble_rom_patch.symbols (.tramp.LL_ConnActive.1)
                  0001d108    00000008     ble_rom_patch.symbols (.tramp.HCI_DataBufferOverflowEvent.1)
                  0001d110    00000008     ble_rom_patch.symbols (.tramp.LL_DirectTestEndDoneCback.1)
                  0001d118    00000008     ble_rom_patch.symbols (.tramp.llGetActiveTasks.1)
                  0001d120    00000008     ble_rom_patch.symbols (.tramp.llSetupAdv.1)
                  0001d128    00000008     ble_rom_patch.symbols (.tramp.llGetNumTasks.1)
                  0001d130    00000008     ble_rom_patch.symbols (.tramp.llCheckForLstoDuringSL.1)
                  0001d138    00000008     ble_rom_patch.symbols (.tramp.llEventInRange.1)
                  0001d140    00000008     ble_rom_patch.symbols (.tramp.LL_EncLtkReqCback.1)
                  0001d148    00000008     ble_rom_patch.symbols (.tramp.llSetupEncRsp.1)
                  0001d150    00000008     ble_rom_patch.symbols (.tramp.LL_ENC_AES128_Encrypt.1)
                  0001d158    00000008     ble_rom_patch.symbols (.tramp.LL_EncKeyRefreshCback.1)
                  0001d160    00000008     ble_rom_patch.symbols (.tramp.LL_EncChangeCback.1)
                  0001d168    00000008     ble_rom_patch.symbols (.tramp.llSetupStartEncRsp.1)
                  0001d170    00000008     ble_rom_patch.symbols (.tramp.llSetupPauseEncRsp.1)
                  0001d178    00000008     ble_rom_patch.symbols (.tramp.LL_ReadRemoteVersionInfoCback.1)
                  0001d180    00000008     ble_rom_patch.symbols (.tramp.llSetupVersionIndReq.1)
                  0001d188    00000008     ble_rom_patch.symbols (.tramp.llMoveTempTxDataEntries.1)
                  0001d190    00000008     ble_rom_patch.symbols (.tramp.WL_ClearEntry.1)
                  0001d198    00000008     ble_rom_patch.symbols (.tramp.RFHAL_NextDataEntryDone.1)
                  0001d1a0    00000008     ble_rom_patch.symbols (.tramp.HCI_LE_ClearWhiteListCmd.1)
                  0001d1a8    00000008     ble_rom_patch.symbols (.tramp.HCI_LE_AddWhiteListCmd.1)
                  0001d1b0    00000008     ble_rom_patch.symbols (.tramp.HCI_EXT_NumComplPktsLimitCmd.1)
                  0001d1b8    00000008     ble_rom_patch.symbols (.tramp.HCI_EXT_BuildRevisionCmd.1)
                  0001d1c0    00000008     ble_rom_patch.symbols (.tramp.HCI_EXT_SetSlaveLatencyOverrideCmd.1)
                  0001d1c8    00000008     ble_rom_patch.symbols (.tramp.HCI_EXT_AdvEventNoticeCmd.1)
                  0001d1d0    00000008     ble_rom_patch.symbols (.tramp.HCI_EXT_PERbyChanCmd.1)
                  0001d1d8    00000008     ble_rom_patch.symbols (.tramp.HCI_EXT_PacketErrorRateCmd.1)
                  0001d1e0    00000008     ble_rom_patch.symbols (.tramp.HCI_EXT_DisconnectImmedCmd.1)
                  0001d1e8    00000008     ble_rom_patch.symbols (.tramp.HCI_EXT_SetMaxDtmTxPowerCmd.1)
                  0001d1f0    00000008     ble_rom_patch.symbols (.tramp.HCI_EXT_EnablePTMCmd.1)
                  0001d1f8    00000008     ble_rom_patch.symbols (.tramp.HCI_EXT_SetSCACmd.1)
                  0001d200    00000008     ble_rom_patch.symbols (.tramp.HCI_EXT_SetBDADDRCmd.1)
                  0001d208    00000008     ble_rom_patch.symbols (.tramp.HCI_EXT_EndModemTestCmd.1)
                  0001d210    00000008     ble_rom_patch.symbols (.tramp.HCI_EXT_ModemTestRxCmd.1)
                  0001d218    00000008     ble_rom_patch.symbols (.tramp.HCI_EXT_ModemHopTestTxCmd.1)
                  0001d220    00000008     ble_rom_patch.symbols (.tramp.HCI_EXT_ModemTestTxCmd.1)
                  0001d228    00000008     ble_rom_patch.symbols (.tramp.HCI_EXT_SetFastTxResponseTimeCmd.1)
                  0001d230    00000008     ble_rom_patch.symbols (.tramp.HCI_EXT_SetLocalSupportedFeaturesCmd.1)
                  0001d238    00000008     ble_rom_patch.symbols (.tramp.HCI_EXT_DecryptCmd.1)
                  0001d240    00000008     ble_rom_patch.symbols (.tramp.HCI_EXT_OnePktPerEvtCmd.1)
                  0001d248    00000008     ble_rom_patch.symbols (.tramp.HCI_EXT_SetTxPowerCmd.1)
                  0001d250    00000008     ble_rom_patch.symbols (.tramp.HCI_LE_TestEndCmd.1)
                  0001d258    00000008     ble_rom_patch.symbols (.tramp.HCI_LE_ReadSupportedStatesCmd.1)
                  0001d260    00000008     ble_rom_patch.symbols (.tramp.HCI_LE_EncryptCmd.1)
                  0001d268    00000008     ble_rom_patch.symbols (.tramp.HCI_LE_ReadChannelMapCmd.1)
                  0001d270    00000008     ble_rom_patch.symbols (.tramp.HCI_LE_RemoveWhiteListCmd.1)
                  0001d278    00000008     ble_rom_patch.symbols (.tramp.HCI_LE_ReadWhiteListSizeCmd.1)
                  0001d280    00000008     ble_rom_patch.symbols (.tramp.HCI_LE_ReadAdvChanTxPowerCmd.1)
                  0001d288    00000008     ble_rom_patch.symbols (.tramp.HCI_LE_ReadLocalSupportedFeaturesCmd.1)
                  0001d290    00000008     ble_rom_patch.symbols (.tramp.HCI_ReadLocalSupportedFeaturesCmd.1)
                  0001d298    00000008     ble_rom_patch.symbols (.tramp.HCI_ReadTransmitPowerLevelCmd.1)
                  0001d2a0    00000008     ble_rom_patch.symbols (.tramp.HCI_SetEventMaskCmd.1)
                  0001d2a8    00000008     ble_rom_patch.symbols (.tramp.HCI_ReadRemoteVersionInfoCmd.1)
                  0001d2b0    00000008     ble_rom_patch.symbols (.tramp.LL_PseudoRand.1)

.const     0    0001d2b8    000006f8     
                  0001d2b8    00000028     osal_icall_ble.obj (.const:tasksArr)
                  0001d2e0    0000010c     common_rom_init.obj (.const:$O11$$)
                  0001d3ec    000005c4     rom_init.obj (.const:$O13$$)

.constdata 
*          0    0001d9b0    00000000     UNINITIALIZED

.rodata    0    0001d9b0    0000006e     
                  0001d9b0    00000008     host_pxxx.a : gapgattserver.o (.rodata)
                  0001d9b8    00000008                 : gattservapp.o (.rodata)
                  0001d9c0    0000005c     cc2640_ctrl_pxxx.a : ll_config.o (.rodata)
                  0001da1c    00000002                        : ll_patch.o (.rodata)

.cinit     0    0001da20    00000480     
                  0001da20    0000000c     (__TI_handler_table)
                  0001da2c    00000010     (__TI_cinit_table)
                  0001da3c    00000004     --HOLE-- [fill = 0]
                  0001da40    00000458     (.cinit..data.load) [load image]
                  0001de98    00000008     (.cinit..bss.load) [load image, compression = zero_init]

.pinit     0    0001dea0    00000000     UNINITIALIZED

.init_array 
*          0    0001dea0    00000000     UNINITIALIZED

.emb_text 
*          0    0001dea0    00000000     UNINITIALIZED

.TI.bound:NV_FLASH 
*          0    0001e000    00001000     
                  0001e000    00001000     osal_snv_wrapper.obj (.TI.bound:NV_FLASH)

.bss       0    20004348    00000144     UNINITIALIZED
                  20004348    00000004     host_pxxx.a : att_server.o (.bss)
                  2000434c    00000004                 : gap_devmgr.o (.bss)
                  20004350    00000004                 : gap_devmgr.o (.bss)
                  20004354    00000001                 : gap_devmgr.o (.bss)
                  20004355    00000002                 : gatt_task.o (.bss)
                  20004357    00000001                 : l2cap_if.o (.bss)
                  20004358    00000004                 : gap_linkmgr.o (.bss)
                  2000435c    00000004                 : gap_task.o (.bss)
                  20004360    00000004                 : gapgattserver.o (.bss)
                  20004364    00000004                 : gatt_server.o (.bss)
                  20004368    00000008                 : gatt_task.o (.bss)
                  20004370    00000024                 : gattservapp.o (.bss)
                  20004394    00000004                 : gattservapp.o (.bss)
                  20004398    00000030                 : l2cap_task.o (.bss)
                  200043c8    00000001                 : l2cap_util.o (.bss)
                  200043c9    00000001                 : sm_task.o (.bss)
                  200043ca    00000002     cc2640_ctrl_pxxx.a : ll_slave_end_causes_patch.o (.bss)
                  200043cc    00000038     host_pxxx.a : linkdb.o (.bss)
                  20004404    0000000c                 : sm_pairing.o (.bss)
                  20004410    00000010     cc2640_ctrl_pxxx.a : hci_event_patch.o (.bss)
                  20004420    00000008                        : ll_patch.o (.bss)
                  20004428    00000001     cc26xx_hci_tl_none.a : hci_tl.o (.bss)
                  20004429    00000001                          : hci_tl.o (.bss)
                  2000442a    00000001                          : hci_tl.o (.bss)
                  2000442b    00000001                          : hci_tl.o (.bss)
                  2000442c    00000001                          : hci_tl.o (.bss)
                  2000442d    00000001                          : hci_tl.o (.bss)
                  2000442e    00000002     --HOLE--
                  20004430    00000004     hal_trng_wrapper.obj (.bss)
                  20004434    0000003c     ble_dispatch.obj (.bss:$O3$$)
                  20004470    0000000c     osal_timers.obj (.bss:$O9$$)
                  2000447c    0000000c     icall_startup.obj (.bss:$O12$$)
                  20004488    00000004     (.common:tasksEvents)

.data      0    20004490    00000450     UNINITIALIZED
                  20004490    0000002c     host_pxxx.a : gap_configmgr.o (.data)
                  200044bc    00000050                 : gap_configmgr.o (.data)
                  2000450c    0000001c                 : gap_linkmgr.o (.data)
                  20004528    0000001c                 : gap_peridevmgr.o (.data)
                  20004544    00000004                 : gap_perilinkmgr.o (.data)
                  20004548    0000000c                 : gap_task.o (.data)
                  20004554    00000001                 : gapgattserver.o (.data)
                  20004555    00000001                 : gapgattserver.o (.data)
                  20004556    00000001                 : gapgattserver.o (.data)
                  20004557    00000001                 : gatt_server.o (.data)
                  20004558    00000024                 : gapgattserver.o (.data)
                  2000457c    00000070                 : gapgattserver.o (.data)
                  200045ec    00000008                 : gatt_server.o (.data)
                  200045f4    00000001                 : gatt_task.o (.data)
                  200045f5    00000001                 : gattservapp.o (.data)
                  200045f6    00000002                 : l2cap_task.o (.data)
                  200045f8    00000010                 : gattservapp.o (.data)
                  20004608    00000008                 : l2cap_task.o (.data)
                  20004610    00000010                 : sm_rsppairing.o (.data)
                  20004620    0000000c     cc2640_ctrl_pxxx.a : ll_common_patch.o (.data)
                  2000462c    00000020                        : ll_config.o (.data)
                  2000464c    00000004     osal_bufmgr.obj (.data)
                  20004650    000000f8     cc2640_ctrl_pxxx.a : ll_patch.o (.data)
                  20004748    00000008     hal_assert.obj (.data:$O1$$)
                  20004750    00000028     osal.obj (.data:$O4$$)
                  20004778    0000007c     osal_cbtimer.obj (.data:$O5$$)
                  200047f4    00000008     osal_clock.obj (.data:$O6$$)
                  200047fc    00000004     osal_pwrmgr.obj (.data:$O7$$)
                  20004800    00000004     osal_snv_wrapper.obj (.data:$O8$$)
                  20004804    000000dc     gapbondmgr.obj (.data:$O10$$)

MODULE SUMMARY

       Module                                   code    ro data   rw data
       ------                                   ----    -------   -------
    .\HAL\Common\
       hal_assert.obj                           32      0         8      
    +--+----------------------------------------+-------+---------+---------+
       Total:                                   32      0         8      
                                                                         
    .\HAL\Target\CC2650\Drivers\
       hal_trng_wrapper.obj                     120     0         4      
       hal_flash_wrapper.obj                    90      0         0      
    +--+----------------------------------------+-------+---------+---------+
       Total:                                   210     0         4      
                                                                         
    .\ICallBLE\
       ble_dispatch.obj                         2988    0         60     
    +--+----------------------------------------+-------+---------+---------+
       Total:                                   2988    0         60     
                                                                         
    .\OSAL\
       osal_snv_wrapper.obj                     1042    4096      4      
       osal.obj                                 1716    0         40     
       osal_timers.obj                          796     0         12     
       osal_cbtimer.obj                         404     0         124    
       osal_bufmgr.obj                          212     0         4      
       osal_pwrmgr.obj                          148     0         4      
       osal_memory_icall.obj                    72      0         0      
       osal_clock.obj                           0       0         8      
    +--+----------------------------------------+-------+---------+---------+
       Total:                                   4390    4096      196    
                                                                         
    .\PROFILES\
       gapbondmgr.obj                           2862    0         220    
       gattservapp_util.obj                     100     0         0      
    +--+----------------------------------------+-------+---------+---------+
       Total:                                   2962    0         220    
                                                                         
    .\Startup\
       rom_init.obj                             54      1476      0      
       icall_startup.obj                        668     0         12     
       common_rom_init.obj                      0       268       0      
       osal_icall_ble.obj                       56      40        0      
    +--+----------------------------------------+-------+---------+---------+
       Total:                                   778     1784      12     
                                                                         
    .\TOOLS\
       onboard.obj                              2       0         0      
    +--+----------------------------------------+-------+---------+---------+
       Total:                                   2       0         0      
                                                                         
    C:\Users\gquiroz\AppData\Local\Temp\
       {72714725-1E65-45D3-A404-57BF34954B87}   104     0         4      
    +--+----------------------------------------+-------+---------+---------+
       Total:                                   104     0         4      
                                                                         
    c:\ti\simplelink\ble_sdk_2_02_01_18\src\rom\ble_rom_releases\04242014\
       ble_rom_patch.symbols                    920     0         0      
    +--+----------------------------------------+-------+---------+---------+
       Total:                                   920     0         0      
                                                                         
    C:\ti\ti-cgt-arm_16.9.6.LTS\lib\rtsv7M3_T_le_eabi.lib
       ull_div_t2.obj                           500     0         0      
       memcpy_t2.obj                            156     0         0      
       memset_t2.obj                            122     0         0      
       autoinit.obj                             120     0         0      
       copy_decompress_lzss.obj                 104     0         0      
       cpy_tbl.obj                              76      0         0      
       ll_mul_t2.obj                            24      0         0      
       copy_decompress_none.obj                 14      0         0      
       copy_zero_init.obj                       12      0         0      
       startup.obj                              2       0         0      
    +--+----------------------------------------+-------+---------+---------+
       Total:                                   1130    0         0      
                                                                         
    c:/ti/tirtos_cc13xx_cc26xx_2_20_01_08/products/cc26xxware_2_24_02_17393/driverlib/bin/ccs/driverlib.lib
       interrupt.obj                            196     0         0      
       flash.obj                                56      0         0      
       cpu.obj                                  24      0         0      
       vims.obj                                 20      0         0      
    +--+----------------------------------------+-------+---------+---------+
       Total:                                   296     0         0      
                                                                         
    c:\ti\simplelink\ble_sdk_2_02_01_18\blelib\ctrl\cc2640\cc2640_ctrl_pxxx.a
       ll_patch.o                               5924    2         256    
       ll_common_patch.o                        3080    0         12     
       ll_slave_end_causes_patch.o              1790    0         2      
       hci_event_patch.o                        1324    0         16     
       ble_patch.o                              1268    0         0      
       ll_adv_end_causes_patch.o                1064    0         0      
       ll_isr.o                                 968     0         0      
       hci_patch.o                              776     0         0      
       ll_scheduler_patch.o                     424     0         0      
       ll_enc_patch.o                           332     0         0      
       ll_wl_patch.o                            174     0         0      
       hci_data_patch.o                         168     0         0      
       ll_config.o                              0       92        32     
       ll_sleep.o                               70      0         0      
       ll_rat_patch.o                           16      0         0      
    +--+----------------------------------------+-------+---------+---------+
       Total:                                   17378   94        318    
                                                                         
    c:\ti\simplelink\ble_sdk_2_02_01_18\blelib\hci_tl\cc26xx\cc26xx_hci_tl_none.a
       hci_tl.o                                 176     0         6      
    +--+----------------------------------------+-------+---------+---------+
       Total:                                   176     0         6      
                                                                         
    c:\ti\simplelink\ble_sdk_2_02_01_18\blelib\host\host_pxxx.a
       gattservapp.o                            4052    8         57     
       gatt_server.o                            2838    0         13     
       gap_linkmgr.o                            2488    0         32     
       sm_pairing.o                             2020    0         12     
       sm_mgr.o                                 1696    0         0      
       l2cap_util.o                             1676    0         1      
       gap_peridevmgr.o                         1572    0         28     
       att_util.o                               1484    0         0      
       sm_rsppairing.o                          1392    0         16     
       gapgattserver.o                          812     8         155    
       gap_configmgr.o                          840     0         124    
       smp.o                                    924     0         0      
       linkdb.o                                 748     0         56     
       gap_task.o                               764     0         16     
       gatt_task.o                              766     0         11     
       l2cap_task.o                             696     0         58     
       att_server.o                             492     0         4      
       l2cap_if.o                               390     0         1      
       gatt_uuid.o                              318     0         0      
       gap_perilinkmgr.o                        272     0         4      
       sm_task.o                                240     0         1      
       gap_devmgr.o                             176     0         9      
    +--+----------------------------------------+-------+---------+---------+
       Total:                                   26656   16        598    
                                                                         
       Linker Generated:                        0       1148      0      
    +--+----------------------------------------+-------+---------+---------+
       Grand Total:                             58022   7138      1426   


LINKER GENERATED COPY TABLES

__TI_cinit_table @ 0001da2c records: 2, size/record: 8, table size: 16
	.data: load addr=0001da40, load size=00000458 bytes, run addr=20004490, run size=00000450 bytes, compression=copy
	.bss: load addr=0001de98, load size=00000008 bytes, run addr=20004348, run size=00000144 bytes, compression=zero_init


LINKER GENERATED HANDLER TABLE

__TI_handler_table @ 0001da20 records: 3, size/record: 4, table size: 12
	index: 0, handler: __TI_decompress_lzss
	index: 1, handler: __TI_decompress_none
	index: 2, handler: __TI_zero_init


FAR CALL TRAMPOLINES

callee name               trampoline name
   callee addr  tramp addr   call addr  call info
--------------  -----------  ---------  ----------------
__TI_auto_init            $Tramp$TT$S$$__TI_auto_init
   00019fe1     0000f29c     0000f00c   icall_startup.obj (EntrySection:startup_entry)
L2CAP_SetUserConfig       $Tramp$TT$S$$L2CAP_SetUserConfig
   000136a1     0000f2a4     0000f066   icall_startup.obj (EntrySection:startup_entry)
ICall_enrollService$21    $Tramp$TT$S$$ICall_enrollService$21
   0001c9f1     0000f2ac     0000f0c0   icall_startup.obj (EntrySection:startup_entry)
                             0000f1ee   icall_startup.obj (EntrySection:startup_entry)
halAssertHandlerExt       $Tramp$TT$S$$halAssertHandlerExt
   0001c95d     0000f2b4     0000f0d2   icall_startup.obj (EntrySection:startup_entry)
HalFlashRead              $Tramp$TT$S$$HalFlashRead
   0001a6c9     0000f2bc     0000f0fa   icall_startup.obj (EntrySection:startup_entry)
findOffset$13             $Tramp$TT$S$$findOffset$13
   0001ca29     0000f2c4     0000f10c   icall_startup.obj (EntrySection:startup_entry)
                             0000f124   icall_startup.obj (EntrySection:startup_entry)
compactPage$13            $Tramp$TT$S$$compactPage$13
   0001aa99     0000f2cc     0000f110   icall_startup.obj (EntrySection:startup_entry)
erasePage$13              $Tramp$TT$S$$erasePage$13
   0001aa45     0000f2d4     0000f116   icall_startup.obj (EntrySection:startup_entry)
setActivePage$13          $Tramp$TT$S$$setActivePage$13
   0001aa85     0000f2dc     0000f11a   icall_startup.obj (EntrySection:startup_entry)
ICall_getTicks$14         $Tramp$TT$S$$ICall_getTicks$14
   0001c52d     0000f2e4     0000f132   icall_startup.obj (EntrySection:startup_entry)
osal_mem_alloc            $Tramp$TT$S$$osal_mem_alloc
   0001c849     0000f2ec     0000f142   icall_startup.obj (EntrySection:startup_entry)
                             0000f15c   icall_startup.obj (EntrySection:startup_entry)
osal_memset               $Tramp$TT$S$$osal_memset
   0001a5c7     0000f2f4     0000f14c   icall_startup.obj (EntrySection:startup_entry)
                             0000f156   icall_startup.obj (EntrySection:startup_entry)
                             0000f16a   icall_startup.obj (EntrySection:startup_entry)
                             0000f18c   icall_startup.obj (EntrySection:startup_entry)
LL_Init                   $Tramp$TT$S$$LL_Init
   00018145     0000f2fc     0000f170   icall_startup.obj (EntrySection:startup_entry)
HCI_Init                  $Tramp$TT$S$$HCI_Init
   00019f21     0000f304     0000f176   icall_startup.obj (EntrySection:startup_entry)
L2CAP_Init                $Tramp$TT$S$$L2CAP_Init
   000136a5     0000f30c     0000f192   icall_startup.obj (EntrySection:startup_entry)
GAP_Init                  $Tramp$TT$S$$GAP_Init
   00010ff7     0000f314     0000f198   icall_startup.obj (EntrySection:startup_entry)
SM_Init                   $Tramp$TT$S$$SM_Init
   000156c1     0000f31c     0000f19e   icall_startup.obj (EntrySection:startup_entry)
GATT_Init                 $Tramp$TT$S$$GATT_Init
   00012167     0000f324     0000f1a4   icall_startup.obj (EntrySection:startup_entry)
GATTServApp_Init          $Tramp$TT$S$$GATTServApp_Init
   00012561     0000f32c     0000f1aa   icall_startup.obj (EntrySection:startup_entry)
GAP_RegisterBondMgrCBs    $Tramp$TT$S$$GAP_RegisterBondMgrCBs
   000112b5     0000f334     0000f1b8   icall_startup.obj (EntrySection:startup_entry)
gapBondMgrReadBonds$16    $Tramp$TT$S$$gapBondMgrReadBonds$16
   0001b1c1     0000f33c     0000f1bc   icall_startup.obj (EntrySection:startup_entry)
osal_snv_read             $Tramp$TT$S$$osal_snv_read
   0001a751     0000f344     0000f1c8   icall_startup.obj (EntrySection:startup_entry)
osal_start_system         $Tramp$TT$S$$osal_start_system
   0001cafd     0000f34c     0000f23e   icall_startup.obj (EntrySection:startup_entry)
HCI_ReadBDADDRCmd         $Tramp$TT$L$PI$$HCI_ReadBDADDRCmd
   10009765     0001cf20     0000fb4e   host_pxxx.a : gap_configmgr.o (.text)
                             0001ba10   ble_dispatch.obj (.text:processICallLL$5)
HCI_LE_SetRandomAddressCmd  $Tramp$TT$L$PI$$HCI_LE_SetRandomAddressCmd
   10009849     0001cf28     0000fd1e   host_pxxx.a : gap_configmgr.o (.text)
LL_ReadBDADDR             $Tramp$TT$L$PI$$LL_ReadBDADDR
   100056c9     0001cf30     0000fdec   host_pxxx.a : gap_configmgr.o (.text)
HCI_DisconnectCmd         $Tramp$TT$L$PI$$HCI_DisconnectCmd
   10009525     0001cf38     0000ff6e   host_pxxx.a : gap_linkmgr.o (.text)
                             0001051a               : gap_linkmgr.o (.text)
HCI_LE_SetAdvDataCmd      $Tramp$TT$L$PI$$HCI_LE_SetAdvDataCmd
   100098a1     0001cf40     000109a4   host_pxxx.a : gap_peridevmgr.o (.text)
                             00010e3c               : gap_peridevmgr.o (.text)
HCI_LE_SetScanRspDataCmd  $Tramp$TT$L$PI$$HCI_LE_SetScanRspDataCmd
   100098bd     0001cf48     000109ae   host_pxxx.a : gap_peridevmgr.o (.text)
                             00010e46               : gap_peridevmgr.o (.text)
HCI_LE_SetAdvEnableCmd    $Tramp$TT$L$PI$$HCI_LE_SetAdvEnableCmd
   100098d9     0001cf50     000109fe   host_pxxx.a : gap_peridevmgr.o (.text)
                             00010bcc               : gap_peridevmgr.o (.text)
HCI_LE_SetAdvParamCmd     $Tramp$TT$L$PI$$HCI_LE_SetAdvParamCmd
   1000986d     0001cf58     00010d14   host_pxxx.a : gap_peridevmgr.o (.text)
HCI_SetControllerToHostFlowCtrlCmd  $Tramp$TT$L$PI$$HCI_SetControllerToHostFlowCtrlCmd
   100095f5     0001cf60     00013634   host_pxxx.a : l2cap_if.o (.text)
                             00013654               : l2cap_if.o (.text)
HCI_HostBufferSizeCmd     $Tramp$TT$L$PI$$HCI_HostBufferSizeCmd
   10009631     0001cf68     0001364a   host_pxxx.a : l2cap_if.o (.text)
HCI_HostNumCompletedPktCmd  $Tramp$TT$L$PI$$HCI_HostNumCompletedPktCmd
   1000965d     0001cf70     00013668   host_pxxx.a : l2cap_if.o (.text)
HCI_SendDataPkt           $Tramp$TT$L$PI$$HCI_SendDataPkt
   100094e9     0001cf78     00013b44   host_pxxx.a : l2cap_util.o (.text)
HCI_bm_alloc              $Tramp$TT$L$PI$$HCI_bm_alloc
   100094a1     0001cf80     00013fc6   host_pxxx.a : l2cap_util.o (.text)
                             00017254   cc2640_ctrl_pxxx.a : ll_common_patch.o (.text)
LL_Encrypt                $Tramp$TT$L$PI$$LL_Encrypt
   100057d5     0001cf88     000145f0   host_pxxx.a : sm_mgr.o (.text)
HCI_LE_LtkReqReplyCmd     $Tramp$TT$L$PI$$HCI_LE_LtkReqReplyCmd
   10009bc5     0001cf90     00015208   host_pxxx.a : sm_rsppairing.o (.text)
HCI_LE_LtkReqNegReplyCmd  $Tramp$TT$L$PI$$HCI_LE_LtkReqNegReplyCmd
   10009be1     0001cf98     00015222   host_pxxx.a : sm_rsppairing.o (.text)
llMemCopySrc              $Tramp$TT$L$PI$$llMemCopySrc
   100089d9     0001cfa0     00015bac   cc2640_ctrl_pxxx.a : ble_patch.o (.text)
                             00015bb8                      : ble_patch.o (.text)
                             00015bc4                      : ble_patch.o (.text)
                             00015bd0                      : ble_patch.o (.text)
                             00015bf4                      : ble_patch.o (.text)
                             00015c34                      : ble_patch.o (.text)
                             00015c40                      : ble_patch.o (.text)
                             00015c94                      : ble_patch.o (.text)
                             00015ca0                      : ble_patch.o (.text)
                             00015cae                      : ble_patch.o (.text)
                             00015cc6                      : ble_patch.o (.text)
                             00015d74                      : ble_patch.o (.text)
                             00015d82                      : ble_patch.o (.text)
LL_ENC_ReverseBytes       $Tramp$TT$L$PI$$LL_ENC_ReverseBytes
   1000b4ed     0001cfa8     00015cb8   cc2640_ctrl_pxxx.a : ble_patch.o (.text)
                             00015cce                      : ble_patch.o (.text)
LL_ENC_GenDeviceSKD       $Tramp$TT$L$PI$$LL_ENC_GenDeviceSKD
   1000b541     0001cfb0     00015cd6   cc2640_ctrl_pxxx.a : ble_patch.o (.text)
LL_ENC_GenDeviceIV        $Tramp$TT$L$PI$$LL_ENC_GenDeviceIV
   1000b555     0001cfb8     00015cde   cc2640_ctrl_pxxx.a : ble_patch.o (.text)
llEnqueueCtrlPkt          $Tramp$TT$L$PI$$llEnqueueCtrlPkt
   100080bd     0001cfc0     00015d14   cc2640_ctrl_pxxx.a : ble_patch.o (.text)
                             00015d96                      : ble_patch.o (.text)
                             0001872c                      : ll_patch.o (.text)
llSetupUnknownRsp         $Tramp$TT$L$PI$$llSetupUnknownRsp
   10008069     0001cfc8     00015daa   cc2640_ctrl_pxxx.a : ble_patch.o (.text)
                             00019800                      : ll_slave_end_causes_patch.o (.text)
LL_RX_bm_alloc            $Tramp$TT$L$PI$$LL_RX_bm_alloc
   1000556d     0001cfd0     00015e38   cc2640_ctrl_pxxx.a : ble_patch.o (.text)
                             00015e7a                      : ble_patch.o (.text)
                             00017348                      : ll_common_patch.o (.text)
llPatchCM0                $Tramp$TT$L$PI$$llPatchCM0
   1000adb1     0001cfd8     00015ef2   cc2640_ctrl_pxxx.a : ble_patch.o (.text)
RFHAL_AllocRatChan        $Tramp$TT$L$PI$$RFHAL_AllocRatChan
   10018315     0001cfe0     00015ef6   cc2640_ctrl_pxxx.a : ble_patch.o (.text)
RFHAL_RegisterRatChanCallback  $Tramp$TT$L$PI$$RFHAL_RegisterRatChanCallback
   10018391     0001cfe8     00015f02   cc2640_ctrl_pxxx.a : ble_patch.o (.text)
LL_CtrlToHostFlowControl  $Tramp$TT$L$PI$$LL_CtrlToHostFlowControl
   100058d5     0001cff0     0001605a   cc2640_ctrl_pxxx.a : hci_data_patch.o (.text)
HCI_SendCommandCompleteEvent  $Tramp$TT$L$PI$$HCI_SendCommandCompleteEvent
   10008c81     0001cff8     000165e0   cc2640_ctrl_pxxx.a : hci_event_patch.o (.text)
HCI_CommandCompleteEvent  $Tramp$TT$L$PI$$HCI_CommandCompleteEvent
   10008add     0001d000     00016676   cc2640_ctrl_pxxx.a : hci_patch.o (.text)
                             00016732                      : hci_patch.o (.text)
                             00016764                      : hci_patch.o (.text)
                             0001689a                      : hci_patch.o (.text)
                             000168c8                      : hci_patch.o (.text)
HCI_CommandStatusEvent    $Tramp$TT$L$PI$$HCI_CommandStatusEvent
   10008ba1     0001d008     0001674e   cc2640_ctrl_pxxx.a : hci_patch.o (.text)
                             000167c0                      : hci_patch.o (.text)
LL_EXT_ResetSystem        $Tramp$TT$L$PI$$LL_EXT_ResetSystem
   100070d5     0001d010     000167d8   cc2640_ctrl_pxxx.a : hci_patch.o (.text)
LL_ReadLocalVersionInfo   $Tramp$TT$L$PI$$LL_ReadLocalVersionInfo
   1000589d     0001d018     00016858   cc2640_ctrl_pxxx.a : hci_patch.o (.text)
llFreeTask                $Tramp$TT$L$PI$$llFreeTask
   1000abed     0001d020     00016934   cc2640_ctrl_pxxx.a : ll_adv_end_causes_patch.o (.text)
                             00016a50                      : ll_adv_end_causes_patch.o (.text)
                             000170d2                      : ll_common_patch.o (.text)
                             00018fac                      : ll_patch.o (.text)
LL_ENC_GeneratePseudoRandNum  $Tramp$TT$L$PI$$LL_ENC_GeneratePseudoRandNum
   1000b50d     0001d028     00016948   cc2640_ctrl_pxxx.a : ll_adv_end_causes_patch.o (.text)
                             000169e0                      : ll_adv_end_causes_patch.o (.text)
llScheduler               $Tramp$TT$L$PI$$llScheduler
   1000a335     0001d030     00016972   cc2640_ctrl_pxxx.a : ll_adv_end_causes_patch.o (.text)
                             00016a1a                      : ll_adv_end_causes_patch.o (.text)
                             00016cf6                      : ll_adv_end_causes_patch.o (.text)
                             00018f74                      : ll_patch.o (.text)
                             00018fb8                      : ll_patch.o (.text)
                             0001952e                      : ll_slave_end_causes_patch.o (.text)
llConvertLstoToEvent      $Tramp$TT$L$PI$$llConvertLstoToEvent
   10008721     0001d038     00016b64   cc2640_ctrl_pxxx.a : ll_adv_end_causes_patch.o (.text)
                             00019624                      : ll_slave_end_causes_patch.o (.text)
llConvertCtrlProcTimeoutToEvent  $Tramp$TT$L$PI$$llConvertCtrlProcTimeoutToEvent
   10008741     0001d040     00016b6e   cc2640_ctrl_pxxx.a : ll_adv_end_causes_patch.o (.text)
                             0001967e                      : ll_slave_end_causes_patch.o (.text)
llCalcScaFactor           $Tramp$TT$L$PI$$llCalcScaFactor
   1000d94d     0001d048     00016b88   cc2640_ctrl_pxxx.a : ll_adv_end_causes_patch.o (.text)
llConnTerminate           $Tramp$TT$L$PI$$llConnTerminate
   10008631     0001d050     00016c36   cc2640_ctrl_pxxx.a : ll_adv_end_causes_patch.o (.text)
                             00019126                      : ll_patch.o (.text)
                             000194c2                      : ll_slave_end_causes_patch.o (.text)
                             000197a8                      : ll_slave_end_causes_patch.o (.text)
                             00019860                      : ll_slave_end_causes_patch.o (.text)
RFHAL_InitDataQueue       $Tramp$TT$L$PI$$RFHAL_InitDataQueue
   100183b9     0001d058     00016c4a   cc2640_ctrl_pxxx.a : ll_adv_end_causes_patch.o (.text)
                             0001707e                      : ll_common_patch.o (.text)
                             000170ae                      : ll_common_patch.o (.text)
llEventDelta              $Tramp$TT$L$PI$$llEventDelta
   10008719     0001d060     00016da8   cc2640_ctrl_pxxx.a : ll_common_patch.o (.text)
                             00017624                      : ll_common_patch.o (.text)
                             000195f2                      : ll_slave_end_causes_patch.o (.text)
                             0001963e                      : ll_slave_end_causes_patch.o (.text)
LL_TX_bm_alloc            $Tramp$TT$L$PI$$LL_TX_bm_alloc
   10005549     0001d068     00016f1a   cc2640_ctrl_pxxx.a : ll_common_patch.o (.text)
                             00016f7c                      : ll_common_patch.o (.text)
                             00017682                      : ll_common_patch.o (.text)
RFHAL_FreeNextTxDataEntry  $Tramp$TT$L$PI$$RFHAL_FreeNextTxDataEntry
   10018485     0001d070     00016fe0   cc2640_ctrl_pxxx.a : ll_common_patch.o (.text)
                             0001704c                      : ll_common_patch.o (.text)
RFHAL_GetNextDataEntry    $Tramp$TT$L$PI$$RFHAL_GetNextDataEntry
   100184cd     0001d078     00016fe6   cc2640_ctrl_pxxx.a : ll_common_patch.o (.text)
                             00017052                      : ll_common_patch.o (.text)
                             00017092                      : ll_common_patch.o (.text)
                             00019dba                      : ll_isr.o (.text)
RFHAL_GetTempDataEntry    $Tramp$TT$L$PI$$RFHAL_GetTempDataEntry
   100184d1     0001d080     0001705c   cc2640_ctrl_pxxx.a : ll_common_patch.o (.text)
                             0001774c                      : ll_common_patch.o (.text)
llReleaseConnId           $Tramp$TT$L$PI$$llReleaseConnId
   10008429     0001d088     000170cc   cc2640_ctrl_pxxx.a : ll_common_patch.o (.text)
llTimeCompare             $Tramp$TT$L$PI$$llTimeCompare
   1000d8c9     0001d090     0001717e   cc2640_ctrl_pxxx.a : ll_common_patch.o (.text)
                             000173fc                      : ll_common_patch.o (.text)
HCI_HardwareErrorEvent    $Tramp$TT$L$PI$$HCI_HardwareErrorEvent
   10008bf5     0001d098     00017278   cc2640_ctrl_pxxx.a : ll_common_patch.o (.text)
                             00017384                      : ll_common_patch.o (.text)
                             000174e0                      : ll_common_patch.o (.text)
                             0001785c                      : ll_common_patch.o (.text)
                             000178d6                      : ll_common_patch.o (.text)
                             0001847a                      : ll_patch.o (.text)
                             0001883c                      : ll_patch.o (.text)
llGetCurrentTask          $Tramp$TT$L$PI$$llGetCurrentTask
   1000ac3d     0001d0a0     00017402   cc2640_ctrl_pxxx.a : ll_common_patch.o (.text)
                             000183b4                      : ll_patch.o (.text)
                             00018f92                      : ll_patch.o (.text)
                             00019100                      : ll_patch.o (.text)
                             0001910a                      : ll_patch.o (.text)
llTimeDelta               $Tramp$TT$L$PI$$llTimeDelta
   1000d8f5     0001d0a8     00017414   cc2640_ctrl_pxxx.a : ll_common_patch.o (.text)
llSetupRejectInd          $Tramp$TT$L$PI$$llSetupRejectInd
   10007df5     0001d0b0     00017664   cc2640_ctrl_pxxx.a : ll_common_patch.o (.text)
                             000199a6                      : ll_slave_end_causes_patch.o (.text)
LL_ENC_Init               $Tramp$TT$L$PI$$LL_ENC_Init
   1000b4c9     0001d0b8     00017986   cc2640_ctrl_pxxx.a : ll_enc_patch.o (.text)
                             000179f4                      : ll_enc_patch.o (.text)
                             0001850e                      : ll_patch.o (.text)
                             00019a78                      : ll_sleep.o (.text)
LL_ENC_LoadKey            $Tramp$TT$L$PI$$LL_ENC_LoadKey
   1000b58d     0001d0c0     0001798e   cc2640_ctrl_pxxx.a : ll_enc_patch.o (.text)
                             000179fc                      : ll_enc_patch.o (.text)
LL_ENC_GenerateNonce      $Tramp$TT$L$PI$$LL_ENC_GenerateNonce
   1000b569     0001d0c8     000179b0   cc2640_ctrl_pxxx.a : ll_enc_patch.o (.text)
                             00017a20                      : ll_enc_patch.o (.text)
LL_ENC_EncryptMsg         $Tramp$TT$L$PI$$LL_ENC_EncryptMsg
   1000b721     0001d0d0     000179bc   cc2640_ctrl_pxxx.a : ll_enc_patch.o (.text)
LL_ENC_DecryptMsg         $Tramp$TT$L$PI$$LL_ENC_DecryptMsg
   1000b851     0001d0d8     00017a30   cc2640_ctrl_pxxx.a : ll_enc_patch.o (.text)
LL_ENC_GenerateTrueRandNum  $Tramp$TT$L$PI$$LL_ENC_GenerateTrueRandNum
   1000b51d     0001d0e0     0001838a   cc2640_ctrl_pxxx.a : ll_patch.o (.text)
WL_Init                   $Tramp$TT$L$PI$$WL_Init
   1000d189     0001d0e8     0001850a   cc2640_ctrl_pxxx.a : ll_patch.o (.text)
LL_ClearWhiteList         $Tramp$TT$L$PI$$LL_ClearWhiteList
   10005719     0001d0f0     00018512   cc2640_ctrl_pxxx.a : ll_patch.o (.text)
llReleaseAllConnId        $Tramp$TT$L$PI$$llReleaseAllConnId
   10008461     0001d0f8     00018576   cc2640_ctrl_pxxx.a : ll_patch.o (.text)
LL_ConnActive             $Tramp$TT$L$PI$$LL_ConnActive
   1000678d     0001d100     00018634   cc2640_ctrl_pxxx.a : ll_patch.o (.text)
                             00018684                      : ll_patch.o (.text)
                             000186c2                      : ll_patch.o (.text)
                             000186fe                      : ll_patch.o (.text)
                             00018846                      : ll_patch.o (.text)
                             00019022                      : ll_patch.o (.text)
                             00019068                      : ll_patch.o (.text)
                             000190f8                      : ll_patch.o (.text)
HCI_DataBufferOverflowEvent  $Tramp$TT$L$PI$$HCI_DataBufferOverflowEvent
   10008a2d     0001d108     00018866   cc2640_ctrl_pxxx.a : ll_patch.o (.text)
LL_DirectTestEndDoneCback  $Tramp$TT$L$PI$$LL_DirectTestEndDoneCback
   10009471     0001d110     00018d62   cc2640_ctrl_pxxx.a : ll_patch.o (.text)
                             00018d98                      : ll_patch.o (.text)
llGetActiveTasks          $Tramp$TT$L$PI$$llGetActiveTasks
   1000aca9     0001d118     00018f0c   cc2640_ctrl_pxxx.a : ll_patch.o (.text)
llSetupAdv                $Tramp$TT$L$PI$$llSetupAdv
   100073e5     0001d120     00018f38   cc2640_ctrl_pxxx.a : ll_patch.o (.text)
llGetNumTasks             $Tramp$TT$L$PI$$llGetNumTasks
   1000ace1     0001d128     00018f8a   cc2640_ctrl_pxxx.a : ll_patch.o (.text)
llCheckForLstoDuringSL    $Tramp$TT$L$PI$$llCheckForLstoDuringSL
   1000c1b5     0001d130     00019592   cc2640_ctrl_pxxx.a : ll_slave_end_causes_patch.o (.text)
llEventInRange            $Tramp$TT$L$PI$$llEventInRange
   100086f1     0001d138     000195b4   cc2640_ctrl_pxxx.a : ll_slave_end_causes_patch.o (.text)
                             000195d4                      : ll_slave_end_causes_patch.o (.text)
LL_EncLtkReqCback         $Tramp$TT$L$PI$$LL_EncLtkReqCback
   1000925d     0001d140     00019898   cc2640_ctrl_pxxx.a : ll_slave_end_causes_patch.o (.text)
llSetupEncRsp             $Tramp$TT$L$PI$$llSetupEncRsp
   10007b95     0001d148     000198a0   cc2640_ctrl_pxxx.a : ll_slave_end_causes_patch.o (.text)
LL_ENC_AES128_Encrypt     $Tramp$TT$L$PI$$LL_ENC_AES128_Encrypt
   1000b5f5     0001d150     000198fc   cc2640_ctrl_pxxx.a : ll_slave_end_causes_patch.o (.text)
LL_EncKeyRefreshCback     $Tramp$TT$L$PI$$LL_EncKeyRefreshCback
   100093dd     0001d158     00019930   cc2640_ctrl_pxxx.a : ll_slave_end_causes_patch.o (.text)
LL_EncChangeCback         $Tramp$TT$L$PI$$LL_EncChangeCback
   1000933d     0001d160     0001993a   cc2640_ctrl_pxxx.a : ll_slave_end_causes_patch.o (.text)
llSetupStartEncRsp        $Tramp$TT$L$PI$$llSetupStartEncRsp
   10007ca9     0001d168     0001994c   cc2640_ctrl_pxxx.a : ll_slave_end_causes_patch.o (.text)
llSetupPauseEncRsp        $Tramp$TT$L$PI$$llSetupPauseEncRsp
   10007d55     0001d170     00019966   cc2640_ctrl_pxxx.a : ll_slave_end_causes_patch.o (.text)
LL_ReadRemoteVersionInfoCback  $Tramp$TT$L$PI$$LL_ReadRemoteVersionInfoCback
   100091e1     0001d178     000199de   cc2640_ctrl_pxxx.a : ll_slave_end_causes_patch.o (.text)
                             000199f2                      : ll_slave_end_causes_patch.o (.text)
llSetupVersionIndReq      $Tramp$TT$L$PI$$llSetupVersionIndReq
   10007f29     0001d180     000199fe   cc2640_ctrl_pxxx.a : ll_slave_end_causes_patch.o (.text)
llMoveTempTxDataEntries   $Tramp$TT$L$PI$$llMoveTempTxDataEntries
   1000afa1     0001d188     00019a5e   cc2640_ctrl_pxxx.a : ll_slave_end_causes_patch.o (.text)
WL_ClearEntry             $Tramp$TT$L$PI$$WL_ClearEntry
   1000d1f5     0001d190     00019aba   cc2640_ctrl_pxxx.a : ll_wl_patch.o (.text)
RFHAL_NextDataEntryDone   $Tramp$TT$L$PI$$RFHAL_NextDataEntryDone
   100184d5     0001d198     00019e9a   cc2640_ctrl_pxxx.a : ll_isr.o (.text)
HCI_LE_ClearWhiteListCmd  $Tramp$TT$L$PI$$HCI_LE_ClearWhiteListCmd
   100099f9     0001d1a0     0001adaa   gapbondmgr.obj (.text:gapBondMgr_SyncWhiteList$16)
                             0001b9f4   ble_dispatch.obj (.text:processICallLL$5)
HCI_LE_AddWhiteListCmd    $Tramp$TT$L$PI$$HCI_LE_AddWhiteListCmd
   10009a15     0001d1a8     0001adc4   gapbondmgr.obj (.text:gapBondMgr_SyncWhiteList$16)
                             0001b9f0   ble_dispatch.obj (.text:processICallLL$5)
HCI_EXT_NumComplPktsLimitCmd  $Tramp$TT$L$PI$$HCI_EXT_NumComplPktsLimitCmd
   1000a1b5     0001d1b0     0001b922   ble_dispatch.obj (.text:processICallLL$5)
HCI_EXT_BuildRevisionCmd  $Tramp$TT$L$PI$$HCI_EXT_BuildRevisionCmd
   1000a109     0001d1b8     0001b936   ble_dispatch.obj (.text:processICallLL$5)
HCI_EXT_SetSlaveLatencyOverrideCmd  $Tramp$TT$L$PI$$HCI_EXT_SetSlaveLatencyOverrideCmd
   10009e6d     0001d1c0     0001b93c   ble_dispatch.obj (.text:processICallLL$5)
HCI_EXT_AdvEventNoticeCmd  $Tramp$TT$L$PI$$HCI_EXT_AdvEventNoticeCmd
   1000a0f1     0001d1c8     0001b950   ble_dispatch.obj (.text:processICallLL$5)
HCI_EXT_PERbyChanCmd      $Tramp$TT$L$PI$$HCI_EXT_PERbyChanCmd
   1000a075     0001d1d0     0001b958   ble_dispatch.obj (.text:processICallLL$5)
HCI_EXT_PacketErrorRateCmd  $Tramp$TT$L$PI$$HCI_EXT_PacketErrorRateCmd
   1000a031     0001d1d8     0001b960   ble_dispatch.obj (.text:processICallLL$5)
HCI_EXT_DisconnectImmedCmd  $Tramp$TT$L$PI$$HCI_EXT_DisconnectImmedCmd
   1000a011     0001d1e0     0001b966   ble_dispatch.obj (.text:processICallLL$5)
HCI_EXT_SetMaxDtmTxPowerCmd  $Tramp$TT$L$PI$$HCI_EXT_SetMaxDtmTxPowerCmd
   10009fd1     0001d1e8     0001b96c   ble_dispatch.obj (.text:processICallLL$5)
HCI_EXT_EnablePTMCmd      $Tramp$TT$L$PI$$HCI_EXT_EnablePTMCmd
   10009f69     0001d1f0     0001b970   ble_dispatch.obj (.text:processICallLL$5)
HCI_EXT_SetSCACmd         $Tramp$TT$L$PI$$HCI_EXT_SetSCACmd
   10009f49     0001d1f8     0001b976   ble_dispatch.obj (.text:processICallLL$5)
HCI_EXT_SetBDADDRCmd      $Tramp$TT$L$PI$$HCI_EXT_SetBDADDRCmd
   10009f0d     0001d200     0001b97c   ble_dispatch.obj (.text:processICallLL$5)
HCI_EXT_EndModemTestCmd   $Tramp$TT$L$PI$$HCI_EXT_EndModemTestCmd
   10009eed     0001d208     0001b980   ble_dispatch.obj (.text:processICallLL$5)
HCI_EXT_ModemTestRxCmd    $Tramp$TT$L$PI$$HCI_EXT_ModemTestRxCmd
   10009ecd     0001d210     0001b986   ble_dispatch.obj (.text:processICallLL$5)
HCI_EXT_ModemHopTestTxCmd  $Tramp$TT$L$PI$$HCI_EXT_ModemHopTestTxCmd
   10009ead     0001d218     0001b98a   ble_dispatch.obj (.text:processICallLL$5)
HCI_EXT_ModemTestTxCmd    $Tramp$TT$L$PI$$HCI_EXT_ModemTestTxCmd
   10009e8d     0001d220     0001b992   ble_dispatch.obj (.text:processICallLL$5)
HCI_EXT_SetFastTxResponseTimeCmd  $Tramp$TT$L$PI$$HCI_EXT_SetFastTxResponseTimeCmd
   10009e4d     0001d228     0001b998   ble_dispatch.obj (.text:processICallLL$5)
HCI_EXT_SetLocalSupportedFeaturesCmd  $Tramp$TT$L$PI$$HCI_EXT_SetLocalSupportedFeaturesCmd
   10009e2d     0001d230     0001b99e   ble_dispatch.obj (.text:processICallLL$5)
HCI_EXT_DecryptCmd        $Tramp$TT$L$PI$$HCI_EXT_DecryptCmd
   10009dd1     0001d238     0001b9a6   ble_dispatch.obj (.text:processICallLL$5)
HCI_EXT_OnePktPerEvtCmd   $Tramp$TT$L$PI$$HCI_EXT_OnePktPerEvtCmd
   10009d45     0001d240     0001b9ac   ble_dispatch.obj (.text:processICallLL$5)
HCI_EXT_SetTxPowerCmd     $Tramp$TT$L$PI$$HCI_EXT_SetTxPowerCmd
   10009d09     0001d248     0001b9b2   ble_dispatch.obj (.text:processICallLL$5)
HCI_LE_TestEndCmd         $Tramp$TT$L$PI$$HCI_LE_TestEndCmd
   10009c8d     0001d250     0001b9b6   ble_dispatch.obj (.text:processICallLL$5)
HCI_LE_ReadSupportedStatesCmd  $Tramp$TT$L$PI$$HCI_LE_ReadSupportedStatesCmd
   10009c15     0001d258     0001b9cc   ble_dispatch.obj (.text:processICallLL$5)
HCI_LE_EncryptCmd         $Tramp$TT$L$PI$$HCI_LE_EncryptCmd
   10009af5     0001d260     0001b9d4   ble_dispatch.obj (.text:processICallLL$5)
HCI_LE_ReadChannelMapCmd  $Tramp$TT$L$PI$$HCI_LE_ReadChannelMapCmd
   10009aa1     0001d268     0001b9e0   ble_dispatch.obj (.text:processICallLL$5)
HCI_LE_RemoveWhiteListCmd  $Tramp$TT$L$PI$$HCI_LE_RemoveWhiteListCmd
   10009a31     0001d270     0001b9e8   ble_dispatch.obj (.text:processICallLL$5)
HCI_LE_ReadWhiteListSizeCmd  $Tramp$TT$L$PI$$HCI_LE_ReadWhiteListSizeCmd
   100099c9     0001d278     0001b9f8   ble_dispatch.obj (.text:processICallLL$5)
HCI_LE_ReadAdvChanTxPowerCmd  $Tramp$TT$L$PI$$HCI_LE_ReadAdvChanTxPowerCmd
   100098f5     0001d280     0001b9fc   ble_dispatch.obj (.text:processICallLL$5)
HCI_LE_ReadLocalSupportedFeaturesCmd  $Tramp$TT$L$PI$$HCI_LE_ReadLocalSupportedFeaturesCmd
   10009829     0001d288     0001ba00   ble_dispatch.obj (.text:processICallLL$5)
HCI_ReadLocalSupportedFeaturesCmd  $Tramp$TT$L$PI$$HCI_ReadLocalSupportedFeaturesCmd
   1000973d     0001d290     0001ba14   ble_dispatch.obj (.text:processICallLL$5)
HCI_ReadTransmitPowerLevelCmd  $Tramp$TT$L$PI$$HCI_ReadTransmitPowerLevelCmd
   100095d1     0001d298     0001ba2a   ble_dispatch.obj (.text:processICallLL$5)
HCI_SetEventMaskCmd       $Tramp$TT$L$PI$$HCI_SetEventMaskCmd
   10009571     0001d2a0     0001ba34   ble_dispatch.obj (.text:processICallLL$5)
HCI_ReadRemoteVersionInfoCmd  $Tramp$TT$L$PI$$HCI_ReadRemoteVersionInfoCmd
   10009541     0001d2a8     0001ba3a   ble_dispatch.obj (.text:processICallLL$5)
LL_PseudoRand             $Tramp$TT$L$PI$$LL_PseudoRand
   10005801     0001d2b0     0001cc7e   osal.obj (.text:osal_rand)

[138 trampolines]
[230 trampoline calls]


GLOBAL SYMBOLS: SORTED ALPHABETICALLY BY Name 

address   name                                  
-------   ----                                  
10014c00  A1_rw                                 
10005000  A1_rw_1                               
10019ffe  A2_rw                                 
1000dffe  A2_rw_1                               
10019ffc  A3_rw                                 
1000dffc  A3_rw_1                               
20004f2c  A4_rw                                 
200048e8  A4_rw_1                               
20004f7c  ACCX                                  
20004f80  ACCY                                  
20004f84  ACCZ                                  
10015229  ATOMICPATTERN                         
0000f59b  ATT_BuildErrorRsp                     
0000f5cb  ATT_BuildExchangeMTUReq               
0000f5d7  ATT_BuildExchangeMTURsp               
0000f901  ATT_BuildExecuteWriteReq              
0000f665  ATT_BuildFindByTypeValueReq           
0000f6c1  ATT_BuildFindByTypeValueRsp           
0000f5fd  ATT_BuildFindInfoReq                  
0000f609  ATT_BuildFindInfoRsp                  
0000f925  ATT_BuildHandleValueInd               
0000f887  ATT_BuildPrepareWriteReq              
0000f8b1  ATT_BuildPrepareWriteRsp              
0000f7cb  ATT_BuildReadBlobReq                  
0000f809  ATT_BuildReadBlobRsp                  
0000f849  ATT_BuildReadByGrpTypeRsp             
0000f6e3  ATT_BuildReadByTypeReq                
0000f74f  ATT_BuildReadByTypeRsp                
0000f81b  ATT_BuildReadMultiReq                 
0000f843  ATT_BuildReadMultiRsp                 
0000f773  ATT_BuildReadReq                      
0000f78f  ATT_BuildReadRsp                      
0000f7bf  ATT_BuildWriteReq                     
0000f9f5  ATT_CompareUUID                       
0000fa45  ATT_ConvertUUIDto128                  
0000fa6d  ATT_ConvertUUIDto16                   
0000f35b  ATT_ErrorRsp                          
0000f36d  ATT_ExchangeMTURsp                    
0000f49f  ATT_ExecuteWriteRsp                   
0000f3b5  ATT_FindByTypeValueRsp                
0000f385  ATT_FindInfoRsp                       
0000fad5  ATT_GetMTU                            
0000faf7  ATT_GetParamValue                     
0000f4c1  ATT_HandleValueInd                    
0000f4ab  ATT_HandleValueNoti                   
0000f5ad  ATT_ParseErrorRsp                     
0000f5cd  ATT_ParseExchangeMTUReq               
0000f5e7  ATT_ParseExchangeMTURsp               
0000f909  ATT_ParseExecuteWriteReq              
0000f91b  ATT_ParseExecuteWriteRsp              
0000f67f  ATT_ParseFindByTypeValueReq           
0000f6c9  ATT_ParseFindByTypeValueRsp           
0000f5ff  ATT_ParseFindInfoReq                  
0000f621  ATT_ParseFindInfoRsp                  
0000f965  ATT_ParseHandleValueCfm               
0000f939  ATT_ParseHandleValueInd               
0000f541  ATT_ParsePacket                       
0000f889  ATT_ParsePrepareWriteReq              
0000f8cf  ATT_ParsePrepareWriteRsp              
0000f7e5  ATT_ParseReadBlobReq                  
0000f80d  ATT_ParseReadBlobRsp                  
0000f85b  ATT_ParseReadByGrpTypeRsp             
0000f713  ATT_ParseReadByTypeReq                
0000f751  ATT_ParseReadByTypeRsp                
0000f823  ATT_ParseReadMultiReq                 
0000f847  ATT_ParseReadMultiRsp                 
0000f775  ATT_ParseReadReq                      
0000f793  ATT_ParseReadRsp                      
0000f795  ATT_ParseWriteReq                     
0000f7c1  ATT_ParseWriteRsp                     
0000f485  ATT_PrepareWriteRsp                   
0000f41d  ATT_ReadBlobRsp                       
0000f457  ATT_ReadByGrpTypeRsp                  
0000f3d5  ATT_ReadByTypeRsp                     
0000f439  ATT_ReadMultiRsp                      
0000f401  ATT_ReadRsp                           
0000f355  ATT_RegisterServer                    
0000faf5  ATT_SetParamValue                     
0000faab  ATT_UpdateMTU                         
0000f479  ATT_WriteRsp                          
10016c29  AddRoundKeySubBytes_Sw                
10018a19  AesCcm_authEncrypt_Sw                 
10018a35  AesCcm_decryptAuth_Sw                 
10018b09  AesCcm_getNumBlocks_Sw                
10018ac5  Aes_decrypt_Sw                        
10018a99  Aes_encrypt_Sw                        
20004f2c  COMMON_RAM_BASE_ADDR                  
10014c01  COMMON_ROM_BASE_ADDR                  
10015a6d  COPY                                  
10017959  ECC_allocWorkzone                     
10017dbd  ECC_keyGen                            
10017961  ECC_setWin                            
10017ded  ECDH_commonKey                        
10017969  ECDSA_sign                            
10017b01  ECDSA_verif                           
10015a11  EXPORTOPERAND                         
20004f78  EXPW                                  
20004f6c  EXPX                                  
20004f70  EXPY                                  
20004f74  EXPZ                                  
10016f58  FFMult2                               
10017058  FFMult3                               
10016d05  FFMult_Sw                             
10018d6c  Fill1                                 
1000d9ec  Fill1_1                               
0001b63d  GAPBondMgr_LinkEst                    
0001b219  GAPBondMgr_LinkTerm                   
0001b3f9  GAPBondMgr_ProcessEvent               
0001b269  GAPBondMgr_ProcessGAPMsg              
0001a801  GAPBondMgr_ResolveAddr                
0001ad4b  GAPBondMgr_UpdateCharCfg              
000100c1  GAP_Authenticate                      
000101fb  GAP_Bond                              
0000fba3  GAP_ConfigDeviceAddr                  
000109b7  GAP_EndDiscoverable                   
00010aad  GAP_GetAdvToken                       
0000fb9d  GAP_GetIRK                            
0000fb27  GAP_GetParamValue                     
00010ff7  GAP_Init                              
000108bd  GAP_MakeDiscoverable                  
000110d5  GAP_NumActiveConnections              
0000fb39  GAP_ParamsInit                        
000101af  GAP_PasscodeUpdate                    
0001017b  GAP_PasskeyUpdate                     
00010f1b  GAP_PeriConnRegister                  
00010b21  GAP_PeriDevMgrInit                    
0000fb7b  GAP_PrivacyInit                       
0001100d  GAP_ProcessEvent                      
000112b5  GAP_RegisterBondMgrCBs                
00010ff1  GAP_RegisterForMsgs                   
00010ac3  GAP_RemoveAdvToken                    
0000fe55  GAP_ResolvePrivateAddr                
0000fb61  GAP_SecParamsInit                     
00010ee1  GAP_SendSlaveSecurityRequest          
00010a03  GAP_SetAdvToken                       
0000fb0d  GAP_SetParamValue                     
00010079  GAP_Signable                          
0001015d  GAP_TerminateAuth                     
0000ff05  GAP_TerminateLinkReq                  
00010b0d  GAP_UpdateAdvTokens                   
0001094f  GAP_UpdateAdvertisingData             
0000ff7f  GAP_UpdateLinkParamReq                
0000ffe7  GAP_UpdateLinkParamReqReply           
0001279f  GATTServApp_AddService                
000127b5  GATTServApp_DelService                
00012643  GATTServApp_DeregisterService         
0001346b  GATTServApp_GetParamValue             
000126e5  GATTServApp_GetParameter              
00012561  GATTServApp_Init                      
0001ceed  GATTServApp_InitCharCfg               
000125af  GATTServApp_ProcessEvent              
000131e9  GATTServApp_ReadAttr                  
0001cedd  GATTServApp_ReadCharCfg               
00012559  GATTServApp_RegisterForMsg            
000125ed  GATTServApp_RegisterService           
000134e1  GATTServApp_SendCCCUpdatedEvent       
00013469  GATTServApp_SetParamValue             
00012687  GATTServApp_SetParameter              
20004388  GATTServApp_TaskID                    
0001346f  GATTServApp_UpdateCharCfg             
000133e1  GATTServApp_WriteAttr                 
0001213f  GATT_AppCompletedMsg                  
0001170d  GATT_DeregisterService                
000118af  GATT_FindHandle                       
00011851  GATT_FindHandleUUID                   
000118fb  GATT_FindNextAttr                     
00012419  GATT_FindUUIDRec                      
000120ad  GATT_GetNextHandle                    
00011a4f  GATT_Indication                       
00012167  GATT_Init                             
00011609  GATT_InitServer                       
00011abb  GATT_Notification                     
000122d1  GATT_NotifyEvent                      
00012185  GATT_ProcessEvent                     
0001212d  GATT_RegisterForMsgs                  
0001174d  GATT_RegisterForReq                   
00011671  GATT_RegisterService                  
0001199b  GATT_SendRsp                          
000117df  GATT_ServiceChangedInd                
0001198b  GATT_ServiceEncKeySize                
0001197f  GATT_ServiceNumAttrs                  
00012133  GATT_SetHostToAppFlowCtrl             
0001211d  GATT_SetNextHandle                    
000122e5  GATT_UpdateMTU                        
00011755  GATT_VerifyReadPermissions            
0001178b  GATT_VerifyWritePermissions           
0001238d  GATT_bm_alloc                         
00012405  GATT_bm_free                          
10015141  GETBIT                                
10015155  GETDIGIT                              
100151a5  GETDIGITL2R                           
00011399  GGS_AddService                        
000113b1  GGS_DelService                        
00011395  GGS_GetParamValue                     
0001135d  GGS_GetParameter                      
000113c5  GGS_RegisterAppCBs                    
00011393  GGS_SetParamValue                     
000112dd  GGS_SetParameter                      
10008add  HCI_CommandCompleteEvent              
10008ba1  HCI_CommandStatusEvent                
10008a2d  HCI_DataBufferOverflowEvent           
10009525  HCI_DisconnectCmd                     
1000a0f1  HCI_EXT_AdvEventNoticeCmd             
1000a109  HCI_EXT_BuildRevisionCmd              
10009d79  HCI_EXT_ClkDivOnHaltCmd               
00016813  HCI_EXT_ConnEventNoticeCmd            
10009dad  HCI_EXT_DeclareNvUsageCmd             
10009dd1  HCI_EXT_DecryptCmd                    
000167ef  HCI_EXT_DelaySleepCmd                 
1000a011  HCI_EXT_DisconnectImmedCmd            
10009f69  HCI_EXT_EnablePTMCmd                  
10009eed  HCI_EXT_EndModemTestCmd               
1000a095  HCI_EXT_ExtendRfRangeCmd              
0001667f  HCI_EXT_GetConnInfoCmd                
1000a0d1  HCI_EXT_HaltDuringRfCmd               
10009ff1  HCI_EXT_MapPmIoPortCmd                
10009ead  HCI_EXT_ModemHopTestTxCmd             
10009ecd  HCI_EXT_ModemTestRxCmd                
10009e8d  HCI_EXT_ModemTestTxCmd                
1000a1b5  HCI_EXT_NumComplPktsLimitCmd          
10009d45  HCI_EXT_OnePktPerEvtCmd               
1000a195  HCI_EXT_OverlappedProcessingCmd       
1000a075  HCI_EXT_PERbyChanCmd                  
1000a031  HCI_EXT_PacketErrorRateCmd            
000167c9  HCI_EXT_ResetSystemCmd                
10009fb1  HCI_EXT_SaveFreqTuneCmd               
10009f0d  HCI_EXT_SetBDADDRCmd                  
10009e4d  HCI_EXT_SetFastTxResponseTimeCmd      
10009f81  HCI_EXT_SetFreqTuneCmd                
10009e2d  HCI_EXT_SetLocalSupportedFeaturesCmd  
10009fd1  HCI_EXT_SetMaxDtmTxPowerCmd           
10009cd5  HCI_EXT_SetRxGainCmd                  
10009f49  HCI_EXT_SetSCACmd                     
10009e6d  HCI_EXT_SetSlaveLatencyOverrideCmd    
10009d09  HCI_EXT_SetTxPowerCmd                 
00019fa7  HCI_ExtTaskRegister                   
00019f95  HCI_GAPTaskRegister                   
10008bf5  HCI_HardwareErrorEvent                
10009631  HCI_HostBufferSizeCmd                 
1000965d  HCI_HostNumCompletedPktCmd            
00019f21  HCI_Init                              
00019f9b  HCI_L2CAPTaskRegister                 
10009a15  HCI_LE_AddWhiteListCmd                
100099f9  HCI_LE_ClearWhiteListCmd              
000167b9  HCI_LE_ConnUpdateCmd                  
1000999d  HCI_LE_CreateConnCancelCmd            
1000995d  HCI_LE_CreateConnCmd                  
10009af5  HCI_LE_EncryptCmd                     
10009be1  HCI_LE_LtkReqNegReplyCmd              
10009bc5  HCI_LE_LtkReqReplyCmd                 
10009b51  HCI_LE_RandCmd                        
100098f5  HCI_LE_ReadAdvChanTxPowerCmd          
0001670d  HCI_LE_ReadBufSizeCmd                 
10009aa1  HCI_LE_ReadChannelMapCmd              
10009829  HCI_LE_ReadLocalSupportedFeaturesCmd  
00016743  HCI_LE_ReadRemoteUsedFeaturesCmd      
10009c15  HCI_LE_ReadSupportedStatesCmd         
100099c9  HCI_LE_ReadWhiteListSizeCmd           
0001677f  HCI_LE_ReceiverTestCmd                
0001673f  HCI_LE_RemoteConnParamReqNegReplyCmd  
0001673b  HCI_LE_RemoteConnParamReqReplyCmd     
10009a31  HCI_LE_RemoveWhiteListCmd             
100098a1  HCI_LE_SetAdvDataCmd                  
100098d9  HCI_LE_SetAdvEnableCmd                
1000986d  HCI_LE_SetAdvParamCmd                 
00016817  HCI_LE_SetEventMaskCmd                
10009a85  HCI_LE_SetHostChanClassificationCmd   
10009849  HCI_LE_SetRandomAddressCmd            
10009941  HCI_LE_SetScanEnableCmd               
10009915  HCI_LE_SetScanParamCmd                
100098bd  HCI_LE_SetScanRspDataCmd              
10009ba9  HCI_LE_StartEncyptCmd                 
10009c8d  HCI_LE_TestEndCmd                     
0001676d  HCI_LE_TransmitterTestCmd             
00016223  HCI_NumOfCompletedPacketsEvent        
00019f53  HCI_ProcessEvent                      
10009765  HCI_ReadBDADDRCmd                     
0001666b  HCI_ReadLocalSupportedCommandsCmd     
1000973d  HCI_ReadLocalSupportedFeaturesCmd     
0001684d  HCI_ReadLocalVersionInfoCmd           
10009541  HCI_ReadRemoteVersionInfoCmd          
000168a5  HCI_ReadRssiCmd                       
100095d1  HCI_ReadTransmitPowerLevelCmd         
00016649  HCI_ResetCmd                          
1000d7cd  HCI_ReverseBytes                      
00019fa1  HCI_SMPTaskRegister                   
10008c81  HCI_SendCommandCompleteEvent          
10008c59  HCI_SendCommandStatusEvent            
10008d31  HCI_SendControllerToHostEvent         
100094e9  HCI_SendDataPkt                       
100095f5  HCI_SetControllerToHostFlowCtrlCmd    
10009571  HCI_SetEventMaskCmd                   
00016791  HCI_SetEventMaskPage2Cmd              
00019f8f  HCI_TestAppTaskRegister               
0001660d  HCI_ValidConnTimeParams               
00016591  HCI_VendorSpecifcCommandCompleteEvent 
100094a1  HCI_bm_alloc                          
0001a5e5  HalFlashGetAddress                    
0001a6c9  HalFlashRead                          
0001a969  HalFlashWrite                         
0001c781  HalTRNG_GetTRNG                       
0001a3dd  HalTRNG_InitTRNG                      
2000447c  ICall_dispatcher                      
20004480  ICall_enterCriticalSection            
20004484  ICall_leaveCriticalSection            
10015a35  IMPORTDATA                            
100159a9  IMPORTLENGTH                          
100159ad  IMPORTMODULUS                         
100159d1  IMPORTOPERAND                         
1001568d  INVERT                                
10016da1  InvAddRoundKey_Sw                     
10016ed5  InvMixColumns_Sw                      
10016dc9  InvRoundKey_Sw                        
10017264  InvSbox                               
10016ea1  InvShiftRows_Sw                       
10016e8d  InvSubBytes_Sw                        
100154f5  JACADD                                
00013bd1  L2CAP_BuildCmdReject                  
00013ce9  L2CAP_BuildInfoRsp                    
00013cb5  L2CAP_BuildParamUpdateRsp             
000135b1  L2CAP_CmdReject                       
000135d7  L2CAP_ConnParamUpdateReq              
0001360d  L2CAP_ConnParamUpdateRsp              
0001367b  L2CAP_GetMTU                          
00013fdd  L2CAP_GetParamValue                   
00013659  L2CAP_HostNumCompletedPkts            
000135bf  L2CAP_InfoReq                         
000136a5  L2CAP_Init                            
00013cd1  L2CAP_ParseInfoReq                    
00013c7b  L2CAP_ParseParamUpdateReq             
00013707  L2CAP_ProcessEvent                    
00013525  L2CAP_RegisterApp                     
00013815  L2CAP_RegisterFlowCtrlTask            
0001354f  L2CAP_SendData                        
0001366f  L2CAP_SetBufSize                      
0001361f  L2CAP_SetControllerToHostFlowCtrl     
00013fdb  L2CAP_SetParamValue                   
000136a1  L2CAP_SetUserConfig                   
00013fc1  L2CAP_bm_alloc                        
20004fe8  LEN                                   
10005739  LL_AddWhiteListDevice                 
10008d81  LL_AdvReportCback                     
00016303  LL_AuthPayloadTimeoutExpiredCback     
10005719  LL_ClearWhiteList                     
1000678d  LL_ConnActive                         
00016125  LL_ConnParamUpdateCback               
10008ead  LL_ConnectionCompleteCback            
100058d5  LL_CtrlToHostFlowControl              
00018d2d  LL_DirectTestEnd                      
10009471  LL_DirectTestEndDoneCback             
00018c29  LL_DirectTestRxTest                   
00018aaf  LL_DirectTestTxTest                   
10005a39  LL_Disconnect                         
10009005  LL_DisconnectCback                    
00019b8f  LL_DoorbellErrorCback                 
1000b639  LL_ENC_AES128_Decrypt                 
1000b5f5  LL_ENC_AES128_Encrypt                 
000179df  LL_ENC_Decrypt                        
1000b851  LL_ENC_DecryptMsg                     
00017971  LL_ENC_Encrypt                        
1000b721  LL_ENC_EncryptMsg                     
1000b555  LL_ENC_GenDeviceIV                    
1000b541  LL_ENC_GenDeviceSKD                   
1000b569  LL_ENC_GenerateNonce                  
1000b50d  LL_ENC_GeneratePseudoRandNum          
1000b51d  LL_ENC_GenerateTrueRandNum            
1000b4c9  LL_ENC_Init                           
1000b58d  LL_ENC_LoadKey                        
1000b4ed  LL_ENC_ReverseBytes                   
10007025  LL_EXT_AdvEventNotice                 
000190b9  LL_EXT_BuildRevision                  
10006b7d  LL_EXT_ClkDivOnHalt                   
00019061  LL_EXT_ConnEventNotice                
10006b81  LL_EXT_DeclareNvUsage                 
10006b85  LL_EXT_Decrypt                        
100070a1  LL_EXT_DelaySleep                     
000190f5  LL_EXT_DisconnectImmed                
00018a89  LL_EXT_EndModemTest                   
1000701d  LL_EXT_ExtendRfRange                  
1000a2ad  LL_EXT_ExtendRfRangeCback             
000185cd  LL_EXT_GetConnInfo                    
10007021  LL_EXT_HaltDuringRf                   
10006f49  LL_EXT_MapPmIoPort                    
000188cd  LL_EXT_ModemHopTestTx                 
000189f1  LL_EXT_ModemTestRx                    
0001896d  LL_EXT_ModemTestTx                    
00019091  LL_EXT_NumComplPktsLimit              
10006b59  LL_EXT_OnePacketPerEvent              
10007109  LL_EXT_OverlappedProcessing           
10006fed  LL_EXT_PERbyChan                      
10006f99  LL_EXT_PacketErrorRate                
1000a259  LL_EXT_PacketErrorRateCback           
100070d5  LL_EXT_ResetSystem                    
10006efd  LL_EXT_SaveFreqTune                   
10006e01  LL_EXT_SetBDADDR                      
10006bc5  LL_EXT_SetFastTxResponseTime          
10006ef9  LL_EXT_SetFreqTune                    
0001874b  LL_EXT_SetLocalSupportedFeatures      
000187b9  LL_EXT_SetMaxDtmTxPower               
10006ad9  LL_EXT_SetRxGain                      
1000a201  LL_EXT_SetRxGainCback                 
10006e85  LL_EXT_SetSCA                         
10006bdd  LL_EXT_SetSlaveLatencyOverride        
00018781  LL_EXT_SetTxPower                     
1000a211  LL_EXT_SetTxPowerCback                
1000933d  LL_EncChangeCback                     
100093dd  LL_EncKeyRefreshCback                 
000186bf  LL_EncLtkNegReply                     
00018679  LL_EncLtkReply                        
1000925d  LL_EncLtkReqCback                     
100057d5  LL_Encrypt                            
00016377  LL_EnhancedConnectionCompleteCback    
00018fef  LL_GetNumActiveConns                  
00018145  LL_Init                               
00019ba1  LL_LastCmdDoneCback                   
100057b9  LL_NumEmptyWlEntries                  
00019a69  LL_PM_Enter_AES                       
00019a7f  LL_PM_Exit_AES                        
00019a65  LL_PM_GetRfCoreState                  
00019aa9  LL_PM_PowerOffRfCore                  
000183ab  LL_ProcessEvent                       
10005801  LL_PseudoRand                         
1000556d  LL_RX_bm_alloc                        
100057f5  LL_Rand                               
1000a1d5  LL_RandCback                          
10006105  LL_ReadAdvChanTxPower                 
100056c9  LL_ReadBDADDR                         
100059a1  LL_ReadChanMap                        
10005879  LL_ReadLocalSupportedFeatures         
1000589d  LL_ReadLocalVersionInfo               
000186fb  LL_ReadRemoteUsedFeatures             
000161b7  LL_ReadRemoteUsedFeaturesCompleteCback
100058e9  LL_ReadRemoteVersionInfo              
100091e1  LL_ReadRemoteVersionInfoCback         
00018ffb  LL_ReadRssi                           
00018fd3  LL_ReadSupportedStates                
000187d5  LL_ReadTxPowerLevel                   
100057a1  LL_ReadWlSize                         
10005765  LL_RemoveWhiteListDevice              
000184d3  LL_Reset                              
00016039  LL_RxDataCompleteCback                
00019d85  LL_RxEntryDoneCback                   
00019d83  LL_RxIgnoredCback                     
00018ed1  LL_SetAdvControl                      
10005f89  LL_SetAdvData                         
00018dc1  LL_SetAdvParam                        
100056e9  LL_SetRandomAddress                   
1000612d  LL_SetScanRspData                     
10005549  LL_TX_bm_alloc                        
20004c84  LL_TaskID                             
00018813  LL_TxData                             
00019d55  LL_TxDoneCback                        
00019d69  LL_TxEntryDoneCback                   
100158ac  LUTC                                  
100158dc  LUTINCI                               
100158f4  LUTJ                                  
1001588c  LUTOPCODE                             
10015894  LUTOPSIGN                             
100158c4  LUTSE                                 
1001596c  LUTSTATE                              
20004fe4  MOD                                   
20004fd8  MSBMOD                                
10016c79  MixColumns_Sw                         
10018b9c  NIST256_Gx                            
10018bc0  NIST256_Gy                            
10018b54  NIST256_a                             
10018b78  NIST256_b                             
10018b0c  NIST256_p                             
10018b30  NIST256_r                             
00019fd5  NOROM_CPUcpsid                        
00019fc9  NOROM_CPUcpsie                        
0001a94d  NOROM_FlashProgram                    
0001aa29  NOROM_FlashSectorErase                
0001a415  NOROM_IntDisable                      
0001a47d  NOROM_IntEnable                       
0001a90d  NOROM_VIMSModeGet                     
0001e000  NV_FLASH                              
200047f8  OSAL_timeSeconds                      
0001211f  Onboard_soft_reset                    
10014c04  P1_ro                                 
10005004  P1_ro_1                               
10019ffe  P1_ro_2                               
1000dffe  P1_ro_2_1                             
20004f40  P2_rw                                 
20004f40  P2_s0                                 
20004fac  P2_zi                                 
200048fc  P2_zi_1                               
0001d3ec  R2F_Flash_JT                          
0001d2e0  R2F_Flash_JT_CommonROM                
0001d494  R2R_Flash_JT                          
0001d2f8  R2R_Flash_JT_CommonROM                
200048e8  RAM_BASE_ADDR                         
10017158  RCon                                  
00015f9f  RFHAL_AddTxDataEntry                  
100184f9  RFHAL_AllocDataEntry                  
100184a9  RFHAL_AllocDataEntryQueue             
10018315  RFHAL_AllocRatChan                    
100185e1  RFHAL_BuildDataEntryRingBuffer        
10018669  RFHAL_BuildLinkedBuffer               
10018551  RFHAL_BuildRingBuffer                 
10018549  RFHAL_FreeDataEntry                   
100184c5  RFHAL_FreeDataEntryQueue              
10018485  RFHAL_FreeNextTxDataEntry             
1001833d  RFHAL_FreeRatChan                     
100184cd  RFHAL_GetNextDataEntry                
100184d1  RFHAL_GetTempDataEntry                
100183b9  RFHAL_InitDataQueue                   
00015f3b  RFHAL_InitRfHal                       
10018369  RFHAL_MapRatChansToInt                
100184d5  RFHAL_NextDataEntryDone               
100183c5  RFHAL_QueueRFDataEntries              
10018391  RFHAL_RegisterRatChanCallback         
10005001  ROM_BASE_ADDR                         
0001a5b1  ROM_Spinlock                          
10016b79  RoundKey_Sw                           
10015101  SAVEPOINT                             
1000d964  SCA                                   
20004f68  SCAL                                  
100150e5  SCALARMUL                             
10014ced  SCALARMUL_core                        
10015019  SCALARMUL_final                       
10014c05  SCALARMUL_init                        
10015a51  SETOPERAND                            
10015a91  SETWORD                               
10018089  SHA256_final                          
10018129  SHA256_full                           
10017ffd  SHA256_init                           
10017ef1  SHA256_nextState                      
10018019  SHA256_process                        
10017e75  SHA256_round                          
10017f49  SHA256_saveBuffer                     
10017e39  SHA256_updateW                        
UNDEFED   SHT$$INIT_ARRAY$$Base                 
UNDEFED   SHT$$INIT_ARRAY$$Limit                
000142cd  SM_CalcRandomAddr                     
0001435b  SM_Encrypt                            
000145f5  SM_GenerateAuthenSig                  
000156c1  SM_Init                               
000149fb  SM_PasskeyUpdate                      
000156dd  SM_ProcessEvent                       
00014305  SM_ResolveRandomAddrs                 
00015151  SM_ResponderInit                      
0001496d  SM_StartPairing                       
0001468f  SM_VerifyAuthenSig                    
10015821  SQUAREMULTIPLYWORD                    
10017895  SSP_CCM_Auth_Encrypt_Sw               
10017365  SSP_CCM_Auth_Sw                       
1001767d  SSP_CCM_Decrypt_Sw                    
100174fd  SSP_CCM_Encrypt_Sw                    
100178f5  SSP_CCM_InvAuth_Decrypt_Sw            
10017839  SSP_CCM_InvAuth_Sw                    
10017771  SSP_CTR_Decrypt_Sw                    
100175ed  SSP_CTR_Encrypt_Sw                    
10017164  Sbox                                  
10015215  SelectReg                             
10016c45  ShiftRows_Sw                          
2000466c  SysBootMsg                            
20004f88  TMP1                                  
20004f8c  TMP2                                  
20004f90  TMP3                                  
20004f94  TMP4                                  
20004f98  TMP5                                  
20004f9c  TMP6                                  
1000d2d9  WL_AddEntry                           
00019aab  WL_Clear                              
1000d1f5  WL_ClearEntry                         
00019b3b  WL_ClearIgnoreList                    
00019ad9  WL_FindEntry                          
00019acf  WL_GetNumFreeEntries                  
1000d229  WL_GetSize                            
1000d189  WL_Init                               
1000d36d  WL_RemoveEntry                        
00019b1b  WL_SetWlIgnore                        
10015a85  ZERO                                  
0001da2c  __TI_CINIT_Base                       
0001da3c  __TI_CINIT_Limit                      
0001da20  __TI_Handler_Table_Base               
0001da2c  __TI_Handler_Table_Limit              
00019fe1  __TI_auto_init                        
0001ce53  __TI_decompress_lzss                  
0001ce45  __TI_decompress_none                  
ffffffff  __TI_pprof_out_hndl                   
ffffffff  __TI_prof_data_size                   
ffffffff  __TI_prof_data_start                  
0000f000  __TI_static_base__                    
0001ce39  __TI_zero_init                        
0001a051  __aeabi_lmul                          
0001a105  __aeabi_memclr                        
0001a105  __aeabi_memclr4                       
0001a105  __aeabi_memclr8                       
0001a069  __aeabi_memcpy                        
0001a069  __aeabi_memcpy4                       
0001a069  __aeabi_memcpy8                       
0001a107  __aeabi_memset                        
0001a107  __aeabi_memset4                       
0001a107  __aeabi_memset8                       
0001a17f  __aeabi_uldivmod                      
ffffffff  __binit__                             
ffffffff  __c_args__                            
1000dffe  __checksum                            
10019ffe  __checksum_CommonROM                  
10005000  __checksum_begin                      
10014c00  __checksum_begin_CommonROM            
1000dffd  __checksum_end                        
10019ffd  __checksum_end_CommonROM              
00005721  __checksum_value                      
0000e0ea  __checksum_value_CommonROM            
10018ced  __exit                                
000136a3  _system_post_cinit                    
1000d9b0  advChan                               
20004c24  advCmd                                
20004bdc  advDataEntry                          
20004c14  advDataQueue                          
1000d9b4  advEvt2Cmd                            
1000d9c0  advEvt2State                          
200049ec  advInfo                               
20004654  advInfoExt                            
20004e98  advOutput                             
20004d58  advParam                              
0001d9d4  advPktSuffix                          
200045f5  appTaskID                             
00012538  appearanceUUID                        
20004748  assertSubcause                        
0000f96f  attSendMsg                            
20004fdc  aux64                                 
20004778  baseTaskID                            
ffffffff  binit                                 
0001c8ad  bleDispatch_BMAlloc                   
0001c945  bleDispatch_BMFree                    
0001ba41  bleDispatch_ProcessEvent              
20004434  bleDispatch_TaskID                    
20004f08  bleEvtMask                            
0000fafc  btBaseUUID                            
20004c98  buildInfo                             
20004ee8  cachedTRNGdata                        
2000477c  cbTimers                              
20004ca8  chanMapUpdate                         
00012530  charAggFormatUUID                     
0001251c  charExtPropsUUID                      
0001252c  charFormatUUID                        
00012520  charUserDescUUID                      
00012518  characterUUID                         
00012524  clientCharCfgUUID                     
20004e70  connOutput                            
20004dc8  connReqData                           
0001495c  const_Rb                              
0001cded  copy_in                               
20004f24  ctrlToHostEnable                      
20004cb9  curTxPowerVal                         
20004fa0  data_Gx                               
20004fa4  data_Gy                               
20004f50  data_a                                
20004fa8  data_b                                
20004f48  data_p                                
20004f4c  data_r                                
20004ed0  deviceFeatureSet                      
00012534  deviceNameUUID                        
20004edc  dtmInfo                               
00012550  extReportRefUUID                      
20004cbb  fastTxRespTime                        
20004fcc  fwInfoCmd                             
0000fd27  gapAddAddrAdj                         
200044ac  gapAppTaskID                          
200044af  gapAutoAdvPrivateAddrChange           
2000483a  gapBond_lruBondList                   
20004811  gapBond_removeLRUBond                 
0000fed9  gapClrState                           
200044ae  gapDeviceAddrMode                     
0000fe7b  gapFindADType                         
00010639  gapFreeEstLink                        
0000fde3  gapGetDevAddress                      
0000fddd  gapGetDevAddressMode                  
0000fdb5  gapGetSRK                             
0000fdbb  gapGetSignCounter                     
0000fd4b  gapHost2CtrlOwnAddrType               
0000fdc3  gapIncSignCounter                     
0000fe59  gapIsAdvertising                      
0000fe5d  gapIsScanning                         
00010769  gapPairingCompleteCB                  
00010701  gapPasskeyNeededCB                    
200044b0  gapPrivateAddrChangeTimeout           
00010305  gapProcessConnectionCompleteEvt       
000103df  gapProcessDisconnectCompleteEvt       
0000fcf9  gapProcessNewAddr                     
0000fd55  gapProcessRandomAddrComplete          
000103b3  gapProcessRemoteConnParamReqEvt       
200044ad  gapProfileRole                        
0000fc79  gapReadBD_ADDRStatus                  
0000fcb5  gapReadBufSizeCmdStatus               
000112a9  gapRegisterCentral                    
000112af  gapRegisterPeripheral                 
00010899  gapRegisterPeripheralConn             
00010655  gapSendBondCompleteEvent              
000104c5  gapSendLinkUpdateEvent                
000106a7  gapSendPairingReqEvent                
000102c3  gapSendSlaveSecurityReqEvent          
000115fc  gapServiceCBs                         
00012504  gapServiceUUID                        
0000fecf  gapSetState                           
20004354  gapState                              
20004548  gapTaskID                             
20004549  gapUnwantedTaskID                     
00010271  gapUpdateConnSignCounter              
0000fe67  gapValidADType                        
200045f4  gattAppTaskID                         
00012339  gattGetPayload                        
00012253  gattNotifyEvent                       
20004355  gattNumConns                          
00012127  gattRegisterClient                    
00012121  gattRegisterServer                    
0001230b  gattSendFlowCtrlEvt                   
00012508  gattServiceUUID                       
000122a9  gattStartTimer                        
000122b9  gattStopTimer                         
20004356  gattTaskID                            
2000474c  halAssertCback                        
00012417  halAssertHandler                      
0001c95d  halAssertHandlerExt                   
00012557  halAssertSpinlock                     
2000442d  hciExtTaskID                          
2000442a  hciGapTaskID                          
000160e1  hciInitEventMasks                     
2000442b  hciL2capTaskID                        
20004f28  hciPTMenabled                         
2000442c  hciSmpTaskID                          
20004428  hciTaskID                             
20004429  hciTestTaskID                         
20004f58  inPointX                              
20004f5c  inPointY                              
20004f54  inScalar                              
00012514  includeUUID                           
20004db0  initCmd                               
20004b94  initDataEntry                         
20004bcc  initDataQueue                         
20004e58  initInfo                              
20004eb8  initOutput                            
20004cf0  initParam                             
0001d9dc  initPktSuffix                         
00013e21  l2capAllocConnChannel                 
00013cc1  l2capBuildInfoReq                     
00013c4f  l2capBuildParamUpdateReq              
2000460c  l2capChannels                         
00013f1d  l2capDisconnectAllChannels            
00013ad1  l2capEncapSendData                    
00013e81  l2capFindLocalId                      
20004398  l2capFixedChannels                    
00013e73  l2capFreeChannel                      
00013f1b  l2capHandleRxError                    
200043c8  l2capId                               
200045f6  l2capMtuSize                          
00013d8f  l2capNotifyData                       
00013dd3  l2capNotifySignal                     
20004609  l2capNumChannels                      
2000460a  l2capNumDataPkts                      
00013c0f  l2capParseCmdReject                   
00013d2f  l2capParseInfoRsp                     
00013b7b  l2capParsePacket                      
00013cb7  l2capParseParamUpdateRsp              
00013955  l2capParseSignalHdr                   
000139cd  l2capSendCmd                          
00013a63  l2capSendPkt                          
00013969  l2capSendReq                          
00013eab  l2capStartTimer                       
00013ebf  l2capStopTimer                        
00013a3d  l2capStoreFCPkt                       
20004608  l2capTaskID                           
20004749  legacyMode                            
200043cc  linkDBNumConns                        
0001404d  linkDB_Add                            
0001422f  linkDB_Authen                         
0001414f  linkDB_Find                           
00014179  linkDB_FindFirst                      
0001410f  linkDB_GetInfo                        
00013fe1  linkDB_Init                           
00014223  linkDB_MTU                            
000141d9  linkDB_NumActive                      
00014201  linkDB_NumConns                       
0001427b  linkDB_PerformFunc                    
0001402f  linkDB_Register                       
000140b3  linkDB_Remove                         
000141cd  linkDB_Role                           
000141ab  linkDB_State                          
000140e7  linkDB_Update                         
00014207  linkDB_UpdateMTU                      
000142a7  linkDB_reportStatusChange             
0001926b  llActiveTask                          
1000cd51  llAdv_TaskAbort                       
00016a3b  llAdv_TaskConnect                     
00016977  llAdv_TaskEnd                         
000173b1  llAlignToNextEvent                    
00016dbf  llAllocConnId                         
000191ef  llAllocTask                           
100082f1  llAtLeastTwoChans                     
1000d94d  llCalcScaFactor                       
1000c1b5  llCheckForLstoDuringSL                
00015e95  llCheckRxBuffers                      
00017571  llCheckWhiteListUsage                 
100072e9  llClearRfInts                         
00017283  llCombinePDU                          
0001d9ec  llConfigTable                         
00017023  llConnCleanup                         
10008631  llConnTerminate                       
20004664  llConnectionExt                       
20004cb0  llConns                               
10008741  llConvertCtrlProcTimeoutToEvent       
10008721  llConvertLstoToEvent                  
00015e67  llCreateRxBuffer                      
10008985  llDataQEmpty                          
10008965  llDataQFull                           
000170fd  llDequeueCtrlPkt                      
10008921  llDequeueDataQ                        
00016915  llDirAdv_TaskEnd                      
100072e5  llDisableRfInts                       
100072ed  llEnableRfInts                        
100080bd  llEnqueueCtrlPkt                      
10008889  llEnqueueDataQ                        
100088b5  llEnqueueHeadDataQ                    
1000d795  llEqAlreadyValidAddr                  
1000d6e5  llEqSynchWord                         
1000d709  llEqualBytes                          
10008719  llEventDelta                          
100086f1  llEventInRange                        
1000a939  llFindNextSecTask                     
1000a895  llFindStartType                       
00017221  llFragmentPDU                         
1000abed  llFreeTask                            
100086b9  llGenerateCRC                         
1000d695  llGenerateValidAccessAddr             
1000aca9  llGetActiveTasks                      
1000d4ad  llGetAdvChanPDU                       
1000ac3d  llGetCurrentTask                      
000191af  llGetCurrentTime                      
000171b5  llGetMinCI                            
00017165  llGetNextConn                         
000175c5  llGetNextDataChan                     
1000ace1  llGetNumTasks                         
1000b009  llGetNumTxDataEntries                 
000192a1  llGetTask                             
00019249  llGetTaskState                        
0001755d  llGetTxPower                          
1000d6b1  llGtSixConsecZerosOrOnes              
1000d731  llGtTwentyFourTransitions             
000177cd  llHaltRadio                           
000178d7  llHardwareError                       
00016efd  llInitFeatureSet                      
000191ad  llInitRAT                             
1000d761  llLtTwoChangesInLastSixBits           
100089f1  llMemCopyDst                          
100089d9  llMemCopySrc                          
1000afa1  llMoveTempTxDataEntries               
00017799  llOctets2Time                         
1000d6f5  llOneBitSynchWordDiffer               
1000adb1  llPatchCM0                            
10008665  llPendingUpdateParam                  
00017585  llProcessChanMap                      
100072f1  llProcessPostRfOps                    
00015b45  llProcessSlaveControlPacket           
000197d5  llProcessSlaveControlProcedures       
00016fb9  llProcessTxData                       
00015f39  llRatChanCBack_A                      
1000ae41  llRatChanCBack_B                      
1000ae45  llRatChanCBack_C                      
1000ae49  llRatChanCBack_D                      
10008461  llReleaseAllConnId                    
10008429  llReleaseConnId                       
00017139  llReplaceCtrlPkt                      
00015ebb  llReplaceRxBuffers                    
000178d5  llResetRadio                          
000174a5  llRfInit                              
0001745d  llRfSetup                             
000177ed  llRfStartFS                           
000192d1  llScheduleTask                        
1000a335  llScheduler                           
000191bd  llSchedulerInit                       
0001765f  llSendReject                          
100072e1  llSetFreqTune                         
00017611  llSetNextDataChan                     
00017513  llSetTxPower                          
100073e5  llSetupAdv                            
1000aeb1  llSetupAdvDataEntryQueue              
00015de1  llSetupConnRxDataEntryQueue           
10007aed  llSetupEncReq                         
10007b95  llSetupEncRsp                         
00016f15  llSetupFeatureSetRsp                  
100077b5  llSetupInit                           
1000ae95  llSetupInitDataEntryQueue             
00019537  llSetupNextSlaveEvent                 
10007cfd  llSetupPauseEncReq                    
10007d55  llSetupPauseEncRsp                    
00015f07  llSetupRATChanCompare                 
10007df5  llSetupRejectInd                      
00015eed  llSetupRfHal                          
100075fd  llSetupScan                           
1000ae4d  llSetupScanDataEntryQueue             
00016f77  llSetupStartEncReq                    
10007ca9  llSetupStartEncRsp                    
0001767d  llSetupTermInd                        
10008069  llSetupUnknownRsp                     
100079c9  llSetupUpdateParamReq                 
10007f29  llSetupVersionIndReq                  
00019365  llSlave_TaskEnd                       
20004cb8  llState                               
1000d9e1  llTaskError                           
20004ef4  llTaskList                            
0001776b  llTime2Octets                         
1000d8c9  llTimeCompare                         
1000d8f5  llTimeDelta                           
2000462c  llUserConfig                          
000178db  llValidateConnParams                  
00016d3d  llVerifyConnParamReqParams            
000176ef  llWriteTxData                         
0001da1c  ll_buildRevision                      
10016551  mADD                                  
10015bd5  mINVK                                 
10015f81  mMULT                                 
10016749  mOUT                                  
10015a9d  mSET                                  
1001664d  mSUB                                  
20004cbc  maxNumConns                           
20004652  maxNumTxDataBufs                      
20004650  maxPduSize                            
0001d9e4  maxPktsPerEvt                         
20004c85  maxTxPwrForDTM                        
0001a069  memcpy                                
0001a10d  memset                                
20004f14  mstCmd                                
20004f18  mstParam                              
20004cba  numComplPkts                          
20004c88  numComplPktsFlush                     
20004c87  numComplPktsLimit                     
20004f26  numHostBufs                           
20004c8b  numTxDataBufs                         
20004c86  onePktPerEvt                          
0001a395  osalAddTimer                          
0001a375  osalFindTimer                         
0001c54d  osalTimerUpdate                       
0001a635  osal_CbTimerProcessEvent              
0001cde1  osal_CbTimerStart                     
0001cced  osal_CbTimerStop                      
0001a51d  osal_bm_adjust_header                 
0001c871  osal_bm_alloc                         
0001c8f9  osal_bm_free                          
0001ccd3  osal_buffer_uint32                    
0001cca5  osal_build_uint32                     
0001c74d  osal_clear_event                      
20004751  osal_entity                           
2000475c  osal_eventloop_hook                   
0001a605  osal_get_timeoutEx                    
0001a76f  osal_isbufset                         
20004474  osal_last_timestamp                   
20004768  osal_max_msecs                        
0001c849  osal_mem_alloc                        
0001c8d9  osal_mem_free                         
0001a7b5  osal_memcmp                           
0001a5cb  osal_memcpy                           
0001cc89  osal_memdup                           
0001a5c7  osal_memset                           
0001a545  osal_msg_allocate                     
0001a575  osal_msg_deallocate                   
0001b53d  osal_msg_receive                      
0001c3ed  osal_msg_send                         
0001ca95  osal_next_timeout                     
0001c2e1  osal_pwrmgr_task_state                
20004758  osal_qHead                            
0001cc79  osal_rand                             
0001b809  osal_revmemcpy                        
0001a569  osal_self                             
20004760  osal_semaphore                        
0001c9cd  osal_service_entry                    
0001c481  osal_set_event                        
0001b199  osal_snv_compact                      
0001a751  osal_snv_read                         
0001abb5  osal_snv_write                        
0001c80d  osal_start_reload_timer               
0001cafd  osal_start_system                     
0001c6d5  osal_start_timerEx                    
0001c719  osal_stop_timerEx                     
0001cc65  osal_strlen                           
20004764  osal_tickperiod                       
0001c635  osal_timer_refTimeUpdate              
20004f60  outPointX                             
20004f64  outPointY                             
20004c6c  ownPublicAddr                         
20004c74  ownRandomAddr                         
20004c7c  ownSavedPublicAddr                    
20004520  pAuthLink                             
20004410  pBleEvtMask                           
2000451c  pEstLink                              
20004350  pGapAdvertState                       
2000434c  pGapDiscReq                           
20004f00  pHciEvtMask                           
20004418  pHciEvtMask2                          
20004404  pPairingParams                        
20004ffc  pSspAesEncrypt_Sw                     
20004c9c  peerInfo                              
00012544  periConnParamUUID                     
0001253c  periPrivacyFlagUUID                   
2000435c  pfnBondMgrCBs                         
20004524  pfnCentralConnCBs                     
2000454c  pfnPeripheralCBs                      
20004358  pfnPeripheralConnCBs                  
20004408  pfnResponderCBs                       
20004cbe  postRfOperations                      
0001250c  primaryServiceUUID                    
200047fe  pwrmgr_attribute                      
200047fc  pwrmgr_initialized                    
20004fac  ratChanInfo                           
00012540  reconnectAddrUUID                     
00012554  reportRefUUID                         
20004557  reqTaskId                             
00019b65  rfCallback                            
20004c94  rfCfgAdiVal                           
0001d9cc  rfCfgVal                              
20004658  rfCmdHandle                           
20004660  rfDrvTblPtr                           
20004420  rfEvent                               
20004651  rfFeModeBias                          
2000465c  rfHandle                              
20004674  rfMode                                
200046b0  rfObject                              
0001d9e8  rfOpLoc                               
00019b59  rfPUpCallback                         
20004684  rfParams                              
20004698  rfSetup                               
1000dffc  romRev                                
20004435  rspBuf                                
20004cc0  rssiCorrection                        
20004f0c  rxDataQ                               
20004c8a  rxFifoFlowCtrl                        
20004e40  rxModemTestCmd                        
0001d9d0  rxPktSuffix                           
20004f10  rxRingBuf                             
20004ec4  rxTestOut                             
20004e84  rxTestParam                           
20004df8  scanCmd                               
200048fc  scanDataEntry                         
200049dc  scanDataQueue                         
20004d94  scanInfo                              
20004e10  scanOutput                            
20004d14  scanParam                             
0001d9d8  scanPktSuffix                         
20004670  sclkSrc                               
00012510  secondaryServiceUUID                  
00010441  sendEstLinkEvent                      
00012528  servCharCfgUUID                       
20004364  serverInfoTbl                         
00012548  serviceChangedUUID                    
20004c89  slOverride                            
20004518  slaveConnHandle                       
20004510  slaveUpdateReq                        
20004c96  sleepDelay                            
20004de0  slvCmd                                
20004d38  slvParam                              
0001457f  smAuthReqToUint8                      
00015079  smDetermineKeySize                    
00015049  smEndPairing                          
00014dbb  smGenerateConfirm                     
00014d8f  smGeneratePairingReqRsp               
00014555  smGenerateRandBuf                     
00014dd3  smGenerateRandMsg                     
00014a89  smLinkCheck                           
00014c51  smNextPairingState                    
00014f9d  smPairingSendEncInfo                  
00014fd5  smPairingSendIdentityAddrInfo         
00014fcb  smPairingSendIdentityInfo             
00014fa3  smPairingSendMasterID                 
00014ff9  smPairingSendSigningInfo              
00014ab1  smProcessDataMsg                      
00014ba1  smProcessEncryptChange                
00014d1f  smProcessPairingReq                   
00014a79  smRegisterInitiator                   
00014a81  smRegisterResponder                   
00014dfd  smSavePairInfo                        
00014b85  smSendFailAndEnd                      
00015109  smSendFailureEvt                      
00015afb  smSendSMMsg                           
00014d75  smStartEncryption                     
00014399  smStartRspTimer                       
000143b5  smStopRspTimer                        
200043c9  smTaskID                              
00014aab  smTimedOut                            
000145ad  smUint8ToAuthReq                      
00014c81  sm_c1                                 
00014447  sm_c1new                              
000143c5  sm_d1                                 
0001441d  sm_dm                                 
00014515  sm_s1                                 
000159c9  smpBuildEncInfo                       
00015a4b  smpBuildIdentityAddrInfo              
00015a39  smpBuildIdentityInfo                  
000159f1  smpBuildMasterID                      
00015933  smpBuildPairingConfirm                
00015993  smpBuildPairingFailed                 
0001595b  smpBuildPairingRandom                 
000157a9  smpBuildPairingReq                    
000157b7  smpBuildPairingReqRsp                 
000157b1  smpBuildPairingRsp                    
00015ac3  smpBuildSecurityReq                   
00015a9b  smpBuildSigningInfo                   
000159db  smpParseEncInfo                       
00015a7f  smpParseIdentityAddrInfo              
00015a69  smpParseIdentityInfo                  
00015a15  smpParseMasterID                      
00015945  smpParsePairingConfirm                
000159ab  smpParsePairingFailed                 
0001597d  smpParsePairingRandom                 
0001585f  smpParsePairingReq                    
00015adf  smpParseSecurityReq                   
00015aad  smpParseSigningInfo                   
10016d29  sspAesDecrypt_Sw                      
10016af5  sspAesEncryptBasic_Sw                 
10016a99  sspAesEncryptKeyExp_Sw                
10016979  sspAesEncrypt_Sw                      
10016985  sspKeyExpansion_Sw                    
10016975  ssp_KeyInit_Sw                        
0000f001  startup_entry                         
000168d0  supportedCmdsTable                    
20004cc4  taskEndAction                         
20004f0a  taskEndStatus                         
0001d2b8  tasksArr                              
20004488  tasksEvents                           
20004470  timerHead                             
20004668  trngDrvTblPtr                         
20004e28  trxTestCmd                            
20004f1c  txDataQ                               
20004d78  txModemTestCmd                        
0001d9c0  txPowerTable                          
0001d9c4  txPwrTbl                              
20004f20  txTestOut                             
20004ea8  txTestParam                           
0001254c  validRangeUUID                        
20004c8c  verInfo                               
20004f40  win                                   
0001d9e0  wlSize                                
20004a8c  wlTable                               
20004b10  wlTableScan                           
20004f44  workzone                              
10015d19  zADD                                  
10015eb5  zADD32                                
10015de9  zMACC32                               
10015f0d  zMULT32                               
10015bcd  zSET                                  
10015d5d  zSUB                                  
10015e69  zSUB32                                


GLOBAL SYMBOLS: SORTED BY Symbol Address 

address   name                                  
-------   ----                                  
00005721  __checksum_value                      
0000e0ea  __checksum_value_CommonROM            
0000f000  __TI_static_base__                    
0000f001  startup_entry                         
0000f355  ATT_RegisterServer                    
0000f35b  ATT_ErrorRsp                          
0000f36d  ATT_ExchangeMTURsp                    
0000f385  ATT_FindInfoRsp                       
0000f3b5  ATT_FindByTypeValueRsp                
0000f3d5  ATT_ReadByTypeRsp                     
0000f401  ATT_ReadRsp                           
0000f41d  ATT_ReadBlobRsp                       
0000f439  ATT_ReadMultiRsp                      
0000f457  ATT_ReadByGrpTypeRsp                  
0000f479  ATT_WriteRsp                          
0000f485  ATT_PrepareWriteRsp                   
0000f49f  ATT_ExecuteWriteRsp                   
0000f4ab  ATT_HandleValueNoti                   
0000f4c1  ATT_HandleValueInd                    
0000f541  ATT_ParsePacket                       
0000f59b  ATT_BuildErrorRsp                     
0000f5ad  ATT_ParseErrorRsp                     
0000f5cb  ATT_BuildExchangeMTUReq               
0000f5cd  ATT_ParseExchangeMTUReq               
0000f5d7  ATT_BuildExchangeMTURsp               
0000f5e7  ATT_ParseExchangeMTURsp               
0000f5fd  ATT_BuildFindInfoReq                  
0000f5ff  ATT_ParseFindInfoReq                  
0000f609  ATT_BuildFindInfoRsp                  
0000f621  ATT_ParseFindInfoRsp                  
0000f665  ATT_BuildFindByTypeValueReq           
0000f67f  ATT_ParseFindByTypeValueReq           
0000f6c1  ATT_BuildFindByTypeValueRsp           
0000f6c9  ATT_ParseFindByTypeValueRsp           
0000f6e3  ATT_BuildReadByTypeReq                
0000f713  ATT_ParseReadByTypeReq                
0000f74f  ATT_BuildReadByTypeRsp                
0000f751  ATT_ParseReadByTypeRsp                
0000f773  ATT_BuildReadReq                      
0000f775  ATT_ParseReadReq                      
0000f78f  ATT_BuildReadRsp                      
0000f793  ATT_ParseReadRsp                      
0000f795  ATT_ParseWriteReq                     
0000f7bf  ATT_BuildWriteReq                     
0000f7c1  ATT_ParseWriteRsp                     
0000f7cb  ATT_BuildReadBlobReq                  
0000f7e5  ATT_ParseReadBlobReq                  
0000f809  ATT_BuildReadBlobRsp                  
0000f80d  ATT_ParseReadBlobRsp                  
0000f81b  ATT_BuildReadMultiReq                 
0000f823  ATT_ParseReadMultiReq                 
0000f843  ATT_BuildReadMultiRsp                 
0000f847  ATT_ParseReadMultiRsp                 
0000f849  ATT_BuildReadByGrpTypeRsp             
0000f85b  ATT_ParseReadByGrpTypeRsp             
0000f887  ATT_BuildPrepareWriteReq              
0000f889  ATT_ParsePrepareWriteReq              
0000f8b1  ATT_BuildPrepareWriteRsp              
0000f8cf  ATT_ParsePrepareWriteRsp              
0000f901  ATT_BuildExecuteWriteReq              
0000f909  ATT_ParseExecuteWriteReq              
0000f91b  ATT_ParseExecuteWriteRsp              
0000f925  ATT_BuildHandleValueInd               
0000f939  ATT_ParseHandleValueInd               
0000f965  ATT_ParseHandleValueCfm               
0000f96f  attSendMsg                            
0000f9f5  ATT_CompareUUID                       
0000fa45  ATT_ConvertUUIDto128                  
0000fa6d  ATT_ConvertUUIDto16                   
0000faab  ATT_UpdateMTU                         
0000fad5  ATT_GetMTU                            
0000faf5  ATT_SetParamValue                     
0000faf7  ATT_GetParamValue                     
0000fafc  btBaseUUID                            
0000fb0d  GAP_SetParamValue                     
0000fb27  GAP_GetParamValue                     
0000fb39  GAP_ParamsInit                        
0000fb61  GAP_SecParamsInit                     
0000fb7b  GAP_PrivacyInit                       
0000fb9d  GAP_GetIRK                            
0000fba3  GAP_ConfigDeviceAddr                  
0000fc79  gapReadBD_ADDRStatus                  
0000fcb5  gapReadBufSizeCmdStatus               
0000fcf9  gapProcessNewAddr                     
0000fd27  gapAddAddrAdj                         
0000fd4b  gapHost2CtrlOwnAddrType               
0000fd55  gapProcessRandomAddrComplete          
0000fdb5  gapGetSRK                             
0000fdbb  gapGetSignCounter                     
0000fdc3  gapIncSignCounter                     
0000fddd  gapGetDevAddressMode                  
0000fde3  gapGetDevAddress                      
0000fe55  GAP_ResolvePrivateAddr                
0000fe59  gapIsAdvertising                      
0000fe5d  gapIsScanning                         
0000fe67  gapValidADType                        
0000fe7b  gapFindADType                         
0000fecf  gapSetState                           
0000fed9  gapClrState                           
0000ff05  GAP_TerminateLinkReq                  
0000ff7f  GAP_UpdateLinkParamReq                
0000ffe7  GAP_UpdateLinkParamReqReply           
00010079  GAP_Signable                          
000100c1  GAP_Authenticate                      
0001015d  GAP_TerminateAuth                     
0001017b  GAP_PasskeyUpdate                     
000101af  GAP_PasscodeUpdate                    
000101fb  GAP_Bond                              
00010271  gapUpdateConnSignCounter              
000102c3  gapSendSlaveSecurityReqEvent          
00010305  gapProcessConnectionCompleteEvt       
000103b3  gapProcessRemoteConnParamReqEvt       
000103df  gapProcessDisconnectCompleteEvt       
00010441  sendEstLinkEvent                      
000104c5  gapSendLinkUpdateEvent                
00010639  gapFreeEstLink                        
00010655  gapSendBondCompleteEvent              
000106a7  gapSendPairingReqEvent                
00010701  gapPasskeyNeededCB                    
00010769  gapPairingCompleteCB                  
00010899  gapRegisterPeripheralConn             
000108bd  GAP_MakeDiscoverable                  
0001094f  GAP_UpdateAdvertisingData             
000109b7  GAP_EndDiscoverable                   
00010a03  GAP_SetAdvToken                       
00010aad  GAP_GetAdvToken                       
00010ac3  GAP_RemoveAdvToken                    
00010b0d  GAP_UpdateAdvTokens                   
00010b21  GAP_PeriDevMgrInit                    
00010ee1  GAP_SendSlaveSecurityRequest          
00010f1b  GAP_PeriConnRegister                  
00010ff1  GAP_RegisterForMsgs                   
00010ff7  GAP_Init                              
0001100d  GAP_ProcessEvent                      
000110d5  GAP_NumActiveConnections              
000112a9  gapRegisterCentral                    
000112af  gapRegisterPeripheral                 
000112b5  GAP_RegisterBondMgrCBs                
000112dd  GGS_SetParameter                      
0001135d  GGS_GetParameter                      
00011393  GGS_SetParamValue                     
00011395  GGS_GetParamValue                     
00011399  GGS_AddService                        
000113b1  GGS_DelService                        
000113c5  GGS_RegisterAppCBs                    
000115fc  gapServiceCBs                         
00011609  GATT_InitServer                       
00011671  GATT_RegisterService                  
0001170d  GATT_DeregisterService                
0001174d  GATT_RegisterForReq                   
00011755  GATT_VerifyReadPermissions            
0001178b  GATT_VerifyWritePermissions           
000117df  GATT_ServiceChangedInd                
00011851  GATT_FindHandleUUID                   
000118af  GATT_FindHandle                       
000118fb  GATT_FindNextAttr                     
0001197f  GATT_ServiceNumAttrs                  
0001198b  GATT_ServiceEncKeySize                
0001199b  GATT_SendRsp                          
00011a4f  GATT_Indication                       
00011abb  GATT_Notification                     
000120ad  GATT_GetNextHandle                    
0001211d  GATT_SetNextHandle                    
0001211f  Onboard_soft_reset                    
00012121  gattRegisterServer                    
00012127  gattRegisterClient                    
0001212d  GATT_RegisterForMsgs                  
00012133  GATT_SetHostToAppFlowCtrl             
0001213f  GATT_AppCompletedMsg                  
00012167  GATT_Init                             
00012185  GATT_ProcessEvent                     
00012253  gattNotifyEvent                       
000122a9  gattStartTimer                        
000122b9  gattStopTimer                         
000122d1  GATT_NotifyEvent                      
000122e5  GATT_UpdateMTU                        
0001230b  gattSendFlowCtrlEvt                   
00012339  gattGetPayload                        
0001238d  GATT_bm_alloc                         
00012405  GATT_bm_free                          
00012417  halAssertHandler                      
00012419  GATT_FindUUIDRec                      
00012504  gapServiceUUID                        
00012508  gattServiceUUID                       
0001250c  primaryServiceUUID                    
00012510  secondaryServiceUUID                  
00012514  includeUUID                           
00012518  characterUUID                         
0001251c  charExtPropsUUID                      
00012520  charUserDescUUID                      
00012524  clientCharCfgUUID                     
00012528  servCharCfgUUID                       
0001252c  charFormatUUID                        
00012530  charAggFormatUUID                     
00012534  deviceNameUUID                        
00012538  appearanceUUID                        
0001253c  periPrivacyFlagUUID                   
00012540  reconnectAddrUUID                     
00012544  periConnParamUUID                     
00012548  serviceChangedUUID                    
0001254c  validRangeUUID                        
00012550  extReportRefUUID                      
00012554  reportRefUUID                         
00012557  halAssertSpinlock                     
00012559  GATTServApp_RegisterForMsg            
00012561  GATTServApp_Init                      
000125af  GATTServApp_ProcessEvent              
000125ed  GATTServApp_RegisterService           
00012643  GATTServApp_DeregisterService         
00012687  GATTServApp_SetParameter              
000126e5  GATTServApp_GetParameter              
0001279f  GATTServApp_AddService                
000127b5  GATTServApp_DelService                
000131e9  GATTServApp_ReadAttr                  
000133e1  GATTServApp_WriteAttr                 
00013469  GATTServApp_SetParamValue             
0001346b  GATTServApp_GetParamValue             
0001346f  GATTServApp_UpdateCharCfg             
000134e1  GATTServApp_SendCCCUpdatedEvent       
00013525  L2CAP_RegisterApp                     
0001354f  L2CAP_SendData                        
000135b1  L2CAP_CmdReject                       
000135bf  L2CAP_InfoReq                         
000135d7  L2CAP_ConnParamUpdateReq              
0001360d  L2CAP_ConnParamUpdateRsp              
0001361f  L2CAP_SetControllerToHostFlowCtrl     
00013659  L2CAP_HostNumCompletedPkts            
0001366f  L2CAP_SetBufSize                      
0001367b  L2CAP_GetMTU                          
000136a1  L2CAP_SetUserConfig                   
000136a3  _system_post_cinit                    
000136a5  L2CAP_Init                            
00013707  L2CAP_ProcessEvent                    
00013815  L2CAP_RegisterFlowCtrlTask            
00013955  l2capParseSignalHdr                   
00013969  l2capSendReq                          
000139cd  l2capSendCmd                          
00013a3d  l2capStoreFCPkt                       
00013a63  l2capSendPkt                          
00013ad1  l2capEncapSendData                    
00013b7b  l2capParsePacket                      
00013bd1  L2CAP_BuildCmdReject                  
00013c0f  l2capParseCmdReject                   
00013c4f  l2capBuildParamUpdateReq              
00013c7b  L2CAP_ParseParamUpdateReq             
00013cb5  L2CAP_BuildParamUpdateRsp             
00013cb7  l2capParseParamUpdateRsp              
00013cc1  l2capBuildInfoReq                     
00013cd1  L2CAP_ParseInfoReq                    
00013ce9  L2CAP_BuildInfoRsp                    
00013d2f  l2capParseInfoRsp                     
00013d8f  l2capNotifyData                       
00013dd3  l2capNotifySignal                     
00013e21  l2capAllocConnChannel                 
00013e73  l2capFreeChannel                      
00013e81  l2capFindLocalId                      
00013eab  l2capStartTimer                       
00013ebf  l2capStopTimer                        
00013f1b  l2capHandleRxError                    
00013f1d  l2capDisconnectAllChannels            
00013fc1  L2CAP_bm_alloc                        
00013fdb  L2CAP_SetParamValue                   
00013fdd  L2CAP_GetParamValue                   
00013fe1  linkDB_Init                           
0001402f  linkDB_Register                       
0001404d  linkDB_Add                            
000140b3  linkDB_Remove                         
000140e7  linkDB_Update                         
0001410f  linkDB_GetInfo                        
0001414f  linkDB_Find                           
00014179  linkDB_FindFirst                      
000141ab  linkDB_State                          
000141cd  linkDB_Role                           
000141d9  linkDB_NumActive                      
00014201  linkDB_NumConns                       
00014207  linkDB_UpdateMTU                      
00014223  linkDB_MTU                            
0001422f  linkDB_Authen                         
0001427b  linkDB_PerformFunc                    
000142a7  linkDB_reportStatusChange             
000142cd  SM_CalcRandomAddr                     
00014305  SM_ResolveRandomAddrs                 
0001435b  SM_Encrypt                            
00014399  smStartRspTimer                       
000143b5  smStopRspTimer                        
000143c5  sm_d1                                 
0001441d  sm_dm                                 
00014447  sm_c1new                              
00014515  sm_s1                                 
00014555  smGenerateRandBuf                     
0001457f  smAuthReqToUint8                      
000145ad  smUint8ToAuthReq                      
000145f5  SM_GenerateAuthenSig                  
0001468f  SM_VerifyAuthenSig                    
0001495c  const_Rb                              
0001496d  SM_StartPairing                       
000149fb  SM_PasskeyUpdate                      
00014a79  smRegisterInitiator                   
00014a81  smRegisterResponder                   
00014a89  smLinkCheck                           
00014aab  smTimedOut                            
00014ab1  smProcessDataMsg                      
00014b85  smSendFailAndEnd                      
00014ba1  smProcessEncryptChange                
00014c51  smNextPairingState                    
00014c81  sm_c1                                 
00014d1f  smProcessPairingReq                   
00014d75  smStartEncryption                     
00014d8f  smGeneratePairingReqRsp               
00014dbb  smGenerateConfirm                     
00014dd3  smGenerateRandMsg                     
00014dfd  smSavePairInfo                        
00014f9d  smPairingSendEncInfo                  
00014fa3  smPairingSendMasterID                 
00014fcb  smPairingSendIdentityInfo             
00014fd5  smPairingSendIdentityAddrInfo         
00014ff9  smPairingSendSigningInfo              
00015049  smEndPairing                          
00015079  smDetermineKeySize                    
00015109  smSendFailureEvt                      
00015151  SM_ResponderInit                      
000156c1  SM_Init                               
000156dd  SM_ProcessEvent                       
000157a9  smpBuildPairingReq                    
000157b1  smpBuildPairingRsp                    
000157b7  smpBuildPairingReqRsp                 
0001585f  smpParsePairingReq                    
00015933  smpBuildPairingConfirm                
00015945  smpParsePairingConfirm                
0001595b  smpBuildPairingRandom                 
0001597d  smpParsePairingRandom                 
00015993  smpBuildPairingFailed                 
000159ab  smpParsePairingFailed                 
000159c9  smpBuildEncInfo                       
000159db  smpParseEncInfo                       
000159f1  smpBuildMasterID                      
00015a15  smpParseMasterID                      
00015a39  smpBuildIdentityInfo                  
00015a4b  smpBuildIdentityAddrInfo              
00015a69  smpParseIdentityInfo                  
00015a7f  smpParseIdentityAddrInfo              
00015a9b  smpBuildSigningInfo                   
00015aad  smpParseSigningInfo                   
00015ac3  smpBuildSecurityReq                   
00015adf  smpParseSecurityReq                   
00015afb  smSendSMMsg                           
00015b45  llProcessSlaveControlPacket           
00015de1  llSetupConnRxDataEntryQueue           
00015e67  llCreateRxBuffer                      
00015e95  llCheckRxBuffers                      
00015ebb  llReplaceRxBuffers                    
00015eed  llSetupRfHal                          
00015f07  llSetupRATChanCompare                 
00015f39  llRatChanCBack_A                      
00015f3b  RFHAL_InitRfHal                       
00015f9f  RFHAL_AddTxDataEntry                  
00016039  LL_RxDataCompleteCback                
000160e1  hciInitEventMasks                     
00016125  LL_ConnParamUpdateCback               
000161b7  LL_ReadRemoteUsedFeaturesCompleteCback
00016223  HCI_NumOfCompletedPacketsEvent        
00016303  LL_AuthPayloadTimeoutExpiredCback     
00016377  LL_EnhancedConnectionCompleteCback    
00016591  HCI_VendorSpecifcCommandCompleteEvent 
0001660d  HCI_ValidConnTimeParams               
00016649  HCI_ResetCmd                          
0001666b  HCI_ReadLocalSupportedCommandsCmd     
0001667f  HCI_EXT_GetConnInfoCmd                
0001670d  HCI_LE_ReadBufSizeCmd                 
0001673b  HCI_LE_RemoteConnParamReqReplyCmd     
0001673f  HCI_LE_RemoteConnParamReqNegReplyCmd  
00016743  HCI_LE_ReadRemoteUsedFeaturesCmd      
0001676d  HCI_LE_TransmitterTestCmd             
0001677f  HCI_LE_ReceiverTestCmd                
00016791  HCI_SetEventMaskPage2Cmd              
000167b9  HCI_LE_ConnUpdateCmd                  
000167c9  HCI_EXT_ResetSystemCmd                
000167ef  HCI_EXT_DelaySleepCmd                 
00016813  HCI_EXT_ConnEventNoticeCmd            
00016817  HCI_LE_SetEventMaskCmd                
0001684d  HCI_ReadLocalVersionInfoCmd           
000168a5  HCI_ReadRssiCmd                       
000168d0  supportedCmdsTable                    
00016915  llDirAdv_TaskEnd                      
00016977  llAdv_TaskEnd                         
00016a3b  llAdv_TaskConnect                     
00016d3d  llVerifyConnParamReqParams            
00016dbf  llAllocConnId                         
00016efd  llInitFeatureSet                      
00016f15  llSetupFeatureSetRsp                  
00016f77  llSetupStartEncReq                    
00016fb9  llProcessTxData                       
00017023  llConnCleanup                         
000170fd  llDequeueCtrlPkt                      
00017139  llReplaceCtrlPkt                      
00017165  llGetNextConn                         
000171b5  llGetMinCI                            
00017221  llFragmentPDU                         
00017283  llCombinePDU                          
000173b1  llAlignToNextEvent                    
0001745d  llRfSetup                             
000174a5  llRfInit                              
00017513  llSetTxPower                          
0001755d  llGetTxPower                          
00017571  llCheckWhiteListUsage                 
00017585  llProcessChanMap                      
000175c5  llGetNextDataChan                     
00017611  llSetNextDataChan                     
0001765f  llSendReject                          
0001767d  llSetupTermInd                        
000176ef  llWriteTxData                         
0001776b  llTime2Octets                         
00017799  llOctets2Time                         
000177cd  llHaltRadio                           
000177ed  llRfStartFS                           
000178d5  llResetRadio                          
000178d7  llHardwareError                       
000178db  llValidateConnParams                  
00017971  LL_ENC_Encrypt                        
000179df  LL_ENC_Decrypt                        
00018145  LL_Init                               
000183ab  LL_ProcessEvent                       
000184d3  LL_Reset                              
000185cd  LL_EXT_GetConnInfo                    
00018679  LL_EncLtkReply                        
000186bf  LL_EncLtkNegReply                     
000186fb  LL_ReadRemoteUsedFeatures             
0001874b  LL_EXT_SetLocalSupportedFeatures      
00018781  LL_EXT_SetTxPower                     
000187b9  LL_EXT_SetMaxDtmTxPower               
000187d5  LL_ReadTxPowerLevel                   
00018813  LL_TxData                             
000188cd  LL_EXT_ModemHopTestTx                 
0001896d  LL_EXT_ModemTestTx                    
000189f1  LL_EXT_ModemTestRx                    
00018a89  LL_EXT_EndModemTest                   
00018aaf  LL_DirectTestTxTest                   
00018c29  LL_DirectTestRxTest                   
00018d2d  LL_DirectTestEnd                      
00018dc1  LL_SetAdvParam                        
00018ed1  LL_SetAdvControl                      
00018fd3  LL_ReadSupportedStates                
00018fef  LL_GetNumActiveConns                  
00018ffb  LL_ReadRssi                           
00019061  LL_EXT_ConnEventNotice                
00019091  LL_EXT_NumComplPktsLimit              
000190b9  LL_EXT_BuildRevision                  
000190f5  LL_EXT_DisconnectImmed                
000191ad  llInitRAT                             
000191af  llGetCurrentTime                      
000191bd  llSchedulerInit                       
000191ef  llAllocTask                           
00019249  llGetTaskState                        
0001926b  llActiveTask                          
000192a1  llGetTask                             
000192d1  llScheduleTask                        
00019365  llSlave_TaskEnd                       
00019537  llSetupNextSlaveEvent                 
000197d5  llProcessSlaveControlProcedures       
00019a65  LL_PM_GetRfCoreState                  
00019a69  LL_PM_Enter_AES                       
00019a7f  LL_PM_Exit_AES                        
00019aa9  LL_PM_PowerOffRfCore                  
00019aab  WL_Clear                              
00019acf  WL_GetNumFreeEntries                  
00019ad9  WL_FindEntry                          
00019b1b  WL_SetWlIgnore                        
00019b3b  WL_ClearIgnoreList                    
00019b59  rfPUpCallback                         
00019b65  rfCallback                            
00019b8f  LL_DoorbellErrorCback                 
00019ba1  LL_LastCmdDoneCback                   
00019d55  LL_TxDoneCback                        
00019d69  LL_TxEntryDoneCback                   
00019d83  LL_RxIgnoredCback                     
00019d85  LL_RxEntryDoneCback                   
00019f21  HCI_Init                              
00019f53  HCI_ProcessEvent                      
00019f8f  HCI_TestAppTaskRegister               
00019f95  HCI_GAPTaskRegister                   
00019f9b  HCI_L2CAPTaskRegister                 
00019fa1  HCI_SMPTaskRegister                   
00019fa7  HCI_ExtTaskRegister                   
00019fc9  NOROM_CPUcpsie                        
00019fd5  NOROM_CPUcpsid                        
00019fe1  __TI_auto_init                        
0001a051  __aeabi_lmul                          
0001a069  __aeabi_memcpy                        
0001a069  __aeabi_memcpy4                       
0001a069  __aeabi_memcpy8                       
0001a069  memcpy                                
0001a105  __aeabi_memclr                        
0001a105  __aeabi_memclr4                       
0001a105  __aeabi_memclr8                       
0001a107  __aeabi_memset                        
0001a107  __aeabi_memset4                       
0001a107  __aeabi_memset8                       
0001a10d  memset                                
0001a17f  __aeabi_uldivmod                      
0001a375  osalFindTimer                         
0001a395  osalAddTimer                          
0001a3dd  HalTRNG_InitTRNG                      
0001a415  NOROM_IntDisable                      
0001a47d  NOROM_IntEnable                       
0001a51d  osal_bm_adjust_header                 
0001a545  osal_msg_allocate                     
0001a569  osal_self                             
0001a575  osal_msg_deallocate                   
0001a5b1  ROM_Spinlock                          
0001a5c7  osal_memset                           
0001a5cb  osal_memcpy                           
0001a5e5  HalFlashGetAddress                    
0001a605  osal_get_timeoutEx                    
0001a635  osal_CbTimerProcessEvent              
0001a6c9  HalFlashRead                          
0001a751  osal_snv_read                         
0001a76f  osal_isbufset                         
0001a7b5  osal_memcmp                           
0001a801  GAPBondMgr_ResolveAddr                
0001a90d  NOROM_VIMSModeGet                     
0001a94d  NOROM_FlashProgram                    
0001a969  HalFlashWrite                         
0001aa29  NOROM_FlashSectorErase                
0001abb5  osal_snv_write                        
0001ad4b  GAPBondMgr_UpdateCharCfg              
0001b199  osal_snv_compact                      
0001b219  GAPBondMgr_LinkTerm                   
0001b269  GAPBondMgr_ProcessGAPMsg              
0001b3f9  GAPBondMgr_ProcessEvent               
0001b53d  osal_msg_receive                      
0001b63d  GAPBondMgr_LinkEst                    
0001b809  osal_revmemcpy                        
0001ba41  bleDispatch_ProcessEvent              
0001c2e1  osal_pwrmgr_task_state                
0001c3ed  osal_msg_send                         
0001c481  osal_set_event                        
0001c54d  osalTimerUpdate                       
0001c635  osal_timer_refTimeUpdate              
0001c6d5  osal_start_timerEx                    
0001c719  osal_stop_timerEx                     
0001c74d  osal_clear_event                      
0001c781  HalTRNG_GetTRNG                       
0001c80d  osal_start_reload_timer               
0001c849  osal_mem_alloc                        
0001c871  osal_bm_alloc                         
0001c8ad  bleDispatch_BMAlloc                   
0001c8d9  osal_mem_free                         
0001c8f9  osal_bm_free                          
0001c945  bleDispatch_BMFree                    
0001c95d  halAssertHandlerExt                   
0001c9cd  osal_service_entry                    
0001ca95  osal_next_timeout                     
0001cafd  osal_start_system                     
0001cc65  osal_strlen                           
0001cc79  osal_rand                             
0001cc89  osal_memdup                           
0001cca5  osal_build_uint32                     
0001ccd3  osal_buffer_uint32                    
0001cced  osal_CbTimerStop                      
0001cde1  osal_CbTimerStart                     
0001cded  copy_in                               
0001ce39  __TI_zero_init                        
0001ce45  __TI_decompress_none                  
0001ce53  __TI_decompress_lzss                  
0001cedd  GATTServApp_ReadCharCfg               
0001ceed  GATTServApp_InitCharCfg               
0001d2b8  tasksArr                              
0001d2e0  R2F_Flash_JT_CommonROM                
0001d2f8  R2R_Flash_JT_CommonROM                
0001d3ec  R2F_Flash_JT                          
0001d494  R2R_Flash_JT                          
0001d9c0  txPowerTable                          
0001d9c4  txPwrTbl                              
0001d9cc  rfCfgVal                              
0001d9d0  rxPktSuffix                           
0001d9d4  advPktSuffix                          
0001d9d8  scanPktSuffix                         
0001d9dc  initPktSuffix                         
0001d9e0  wlSize                                
0001d9e4  maxPktsPerEvt                         
0001d9e8  rfOpLoc                               
0001d9ec  llConfigTable                         
0001da1c  ll_buildRevision                      
0001da20  __TI_Handler_Table_Base               
0001da2c  __TI_CINIT_Base                       
0001da2c  __TI_Handler_Table_Limit              
0001da3c  __TI_CINIT_Limit                      
0001e000  NV_FLASH                              
10005000  A1_rw_1                               
10005000  __checksum_begin                      
10005001  ROM_BASE_ADDR                         
10005004  P1_ro_1                               
10005549  LL_TX_bm_alloc                        
1000556d  LL_RX_bm_alloc                        
100056c9  LL_ReadBDADDR                         
100056e9  LL_SetRandomAddress                   
10005719  LL_ClearWhiteList                     
10005739  LL_AddWhiteListDevice                 
10005765  LL_RemoveWhiteListDevice              
100057a1  LL_ReadWlSize                         
100057b9  LL_NumEmptyWlEntries                  
100057d5  LL_Encrypt                            
100057f5  LL_Rand                               
10005801  LL_PseudoRand                         
10005879  LL_ReadLocalSupportedFeatures         
1000589d  LL_ReadLocalVersionInfo               
100058d5  LL_CtrlToHostFlowControl              
100058e9  LL_ReadRemoteVersionInfo              
100059a1  LL_ReadChanMap                        
10005a39  LL_Disconnect                         
10005f89  LL_SetAdvData                         
10006105  LL_ReadAdvChanTxPower                 
1000612d  LL_SetScanRspData                     
1000678d  LL_ConnActive                         
10006ad9  LL_EXT_SetRxGain                      
10006b59  LL_EXT_OnePacketPerEvent              
10006b7d  LL_EXT_ClkDivOnHalt                   
10006b81  LL_EXT_DeclareNvUsage                 
10006b85  LL_EXT_Decrypt                        
10006bc5  LL_EXT_SetFastTxResponseTime          
10006bdd  LL_EXT_SetSlaveLatencyOverride        
10006e01  LL_EXT_SetBDADDR                      
10006e85  LL_EXT_SetSCA                         
10006ef9  LL_EXT_SetFreqTune                    
10006efd  LL_EXT_SaveFreqTune                   
10006f49  LL_EXT_MapPmIoPort                    
10006f99  LL_EXT_PacketErrorRate                
10006fed  LL_EXT_PERbyChan                      
1000701d  LL_EXT_ExtendRfRange                  
10007021  LL_EXT_HaltDuringRf                   
10007025  LL_EXT_AdvEventNotice                 
100070a1  LL_EXT_DelaySleep                     
100070d5  LL_EXT_ResetSystem                    
10007109  LL_EXT_OverlappedProcessing           
100072e1  llSetFreqTune                         
100072e5  llDisableRfInts                       
100072e9  llClearRfInts                         
100072ed  llEnableRfInts                        
100072f1  llProcessPostRfOps                    
100073e5  llSetupAdv                            
100075fd  llSetupScan                           
100077b5  llSetupInit                           
100079c9  llSetupUpdateParamReq                 
10007aed  llSetupEncReq                         
10007b95  llSetupEncRsp                         
10007ca9  llSetupStartEncRsp                    
10007cfd  llSetupPauseEncReq                    
10007d55  llSetupPauseEncRsp                    
10007df5  llSetupRejectInd                      
10007f29  llSetupVersionIndReq                  
10008069  llSetupUnknownRsp                     
100080bd  llEnqueueCtrlPkt                      
100082f1  llAtLeastTwoChans                     
10008429  llReleaseConnId                       
10008461  llReleaseAllConnId                    
10008631  llConnTerminate                       
10008665  llPendingUpdateParam                  
100086b9  llGenerateCRC                         
100086f1  llEventInRange                        
10008719  llEventDelta                          
10008721  llConvertLstoToEvent                  
10008741  llConvertCtrlProcTimeoutToEvent       
10008889  llEnqueueDataQ                        
100088b5  llEnqueueHeadDataQ                    
10008921  llDequeueDataQ                        
10008965  llDataQFull                           
10008985  llDataQEmpty                          
100089d9  llMemCopySrc                          
100089f1  llMemCopyDst                          
10008a2d  HCI_DataBufferOverflowEvent           
10008add  HCI_CommandCompleteEvent              
10008ba1  HCI_CommandStatusEvent                
10008bf5  HCI_HardwareErrorEvent                
10008c59  HCI_SendCommandStatusEvent            
10008c81  HCI_SendCommandCompleteEvent          
10008d31  HCI_SendControllerToHostEvent         
10008d81  LL_AdvReportCback                     
10008ead  LL_ConnectionCompleteCback            
10009005  LL_DisconnectCback                    
100091e1  LL_ReadRemoteVersionInfoCback         
1000925d  LL_EncLtkReqCback                     
1000933d  LL_EncChangeCback                     
100093dd  LL_EncKeyRefreshCback                 
10009471  LL_DirectTestEndDoneCback             
100094a1  HCI_bm_alloc                          
100094e9  HCI_SendDataPkt                       
10009525  HCI_DisconnectCmd                     
10009541  HCI_ReadRemoteVersionInfoCmd          
10009571  HCI_SetEventMaskCmd                   
100095d1  HCI_ReadTransmitPowerLevelCmd         
100095f5  HCI_SetControllerToHostFlowCtrlCmd    
10009631  HCI_HostBufferSizeCmd                 
1000965d  HCI_HostNumCompletedPktCmd            
1000973d  HCI_ReadLocalSupportedFeaturesCmd     
10009765  HCI_ReadBDADDRCmd                     
10009829  HCI_LE_ReadLocalSupportedFeaturesCmd  
10009849  HCI_LE_SetRandomAddressCmd            
1000986d  HCI_LE_SetAdvParamCmd                 
100098a1  HCI_LE_SetAdvDataCmd                  
100098bd  HCI_LE_SetScanRspDataCmd              
100098d9  HCI_LE_SetAdvEnableCmd                
100098f5  HCI_LE_ReadAdvChanTxPowerCmd          
10009915  HCI_LE_SetScanParamCmd                
10009941  HCI_LE_SetScanEnableCmd               
1000995d  HCI_LE_CreateConnCmd                  
1000999d  HCI_LE_CreateConnCancelCmd            
100099c9  HCI_LE_ReadWhiteListSizeCmd           
100099f9  HCI_LE_ClearWhiteListCmd              
10009a15  HCI_LE_AddWhiteListCmd                
10009a31  HCI_LE_RemoveWhiteListCmd             
10009a85  HCI_LE_SetHostChanClassificationCmd   
10009aa1  HCI_LE_ReadChannelMapCmd              
10009af5  HCI_LE_EncryptCmd                     
10009b51  HCI_LE_RandCmd                        
10009ba9  HCI_LE_StartEncyptCmd                 
10009bc5  HCI_LE_LtkReqReplyCmd                 
10009be1  HCI_LE_LtkReqNegReplyCmd              
10009c15  HCI_LE_ReadSupportedStatesCmd         
10009c8d  HCI_LE_TestEndCmd                     
10009cd5  HCI_EXT_SetRxGainCmd                  
10009d09  HCI_EXT_SetTxPowerCmd                 
10009d45  HCI_EXT_OnePktPerEvtCmd               
10009d79  HCI_EXT_ClkDivOnHaltCmd               
10009dad  HCI_EXT_DeclareNvUsageCmd             
10009dd1  HCI_EXT_DecryptCmd                    
10009e2d  HCI_EXT_SetLocalSupportedFeaturesCmd  
10009e4d  HCI_EXT_SetFastTxResponseTimeCmd      
10009e6d  HCI_EXT_SetSlaveLatencyOverrideCmd    
10009e8d  HCI_EXT_ModemTestTxCmd                
10009ead  HCI_EXT_ModemHopTestTxCmd             
10009ecd  HCI_EXT_ModemTestRxCmd                
10009eed  HCI_EXT_EndModemTestCmd               
10009f0d  HCI_EXT_SetBDADDRCmd                  
10009f49  HCI_EXT_SetSCACmd                     
10009f69  HCI_EXT_EnablePTMCmd                  
10009f81  HCI_EXT_SetFreqTuneCmd                
10009fb1  HCI_EXT_SaveFreqTuneCmd               
10009fd1  HCI_EXT_SetMaxDtmTxPowerCmd           
10009ff1  HCI_EXT_MapPmIoPortCmd                
1000a011  HCI_EXT_DisconnectImmedCmd            
1000a031  HCI_EXT_PacketErrorRateCmd            
1000a075  HCI_EXT_PERbyChanCmd                  
1000a095  HCI_EXT_ExtendRfRangeCmd              
1000a0d1  HCI_EXT_HaltDuringRfCmd               
1000a0f1  HCI_EXT_AdvEventNoticeCmd             
1000a109  HCI_EXT_BuildRevisionCmd              
1000a195  HCI_EXT_OverlappedProcessingCmd       
1000a1b5  HCI_EXT_NumComplPktsLimitCmd          
1000a1d5  LL_RandCback                          
1000a201  LL_EXT_SetRxGainCback                 
1000a211  LL_EXT_SetTxPowerCback                
1000a259  LL_EXT_PacketErrorRateCback           
1000a2ad  LL_EXT_ExtendRfRangeCback             
1000a335  llScheduler                           
1000a895  llFindStartType                       
1000a939  llFindNextSecTask                     
1000abed  llFreeTask                            
1000ac3d  llGetCurrentTask                      
1000aca9  llGetActiveTasks                      
1000ace1  llGetNumTasks                         
1000adb1  llPatchCM0                            
1000ae41  llRatChanCBack_B                      
1000ae45  llRatChanCBack_C                      
1000ae49  llRatChanCBack_D                      
1000ae4d  llSetupScanDataEntryQueue             
1000ae95  llSetupInitDataEntryQueue             
1000aeb1  llSetupAdvDataEntryQueue              
1000afa1  llMoveTempTxDataEntries               
1000b009  llGetNumTxDataEntries                 
1000b4c9  LL_ENC_Init                           
1000b4ed  LL_ENC_ReverseBytes                   
1000b50d  LL_ENC_GeneratePseudoRandNum          
1000b51d  LL_ENC_GenerateTrueRandNum            
1000b541  LL_ENC_GenDeviceSKD                   
1000b555  LL_ENC_GenDeviceIV                    
1000b569  LL_ENC_GenerateNonce                  
1000b58d  LL_ENC_LoadKey                        
1000b5f5  LL_ENC_AES128_Encrypt                 
1000b639  LL_ENC_AES128_Decrypt                 
1000b721  LL_ENC_EncryptMsg                     
1000b851  LL_ENC_DecryptMsg                     
1000c1b5  llCheckForLstoDuringSL                
1000cd51  llAdv_TaskAbort                       
1000d189  WL_Init                               
1000d1f5  WL_ClearEntry                         
1000d229  WL_GetSize                            
1000d2d9  WL_AddEntry                           
1000d36d  WL_RemoveEntry                        
1000d4ad  llGetAdvChanPDU                       
1000d695  llGenerateValidAccessAddr             
1000d6b1  llGtSixConsecZerosOrOnes              
1000d6e5  llEqSynchWord                         
1000d6f5  llOneBitSynchWordDiffer               
1000d709  llEqualBytes                          
1000d731  llGtTwentyFourTransitions             
1000d761  llLtTwoChangesInLastSixBits           
1000d795  llEqAlreadyValidAddr                  
1000d7cd  HCI_ReverseBytes                      
1000d8c9  llTimeCompare                         
1000d8f5  llTimeDelta                           
1000d94d  llCalcScaFactor                       
1000d964  SCA                                   
1000d9b0  advChan                               
1000d9b4  advEvt2Cmd                            
1000d9c0  advEvt2State                          
1000d9e1  llTaskError                           
1000d9ec  Fill1_1                               
1000dffc  A3_rw_1                               
1000dffc  romRev                                
1000dffd  __checksum_end                        
1000dffe  A2_rw_1                               
1000dffe  P1_ro_2_1                             
1000dffe  __checksum                            
10014c00  A1_rw                                 
10014c00  __checksum_begin_CommonROM            
10014c01  COMMON_ROM_BASE_ADDR                  
10014c04  P1_ro                                 
10014c05  SCALARMUL_init                        
10014ced  SCALARMUL_core                        
10015019  SCALARMUL_final                       
100150e5  SCALARMUL                             
10015101  SAVEPOINT                             
10015141  GETBIT                                
10015155  GETDIGIT                              
100151a5  GETDIGITL2R                           
10015215  SelectReg                             
10015229  ATOMICPATTERN                         
100154f5  JACADD                                
1001568d  INVERT                                
10015821  SQUAREMULTIPLYWORD                    
1001588c  LUTOPCODE                             
10015894  LUTOPSIGN                             
100158ac  LUTC                                  
100158c4  LUTSE                                 
100158dc  LUTINCI                               
100158f4  LUTJ                                  
1001596c  LUTSTATE                              
100159a9  IMPORTLENGTH                          
100159ad  IMPORTMODULUS                         
100159d1  IMPORTOPERAND                         
10015a11  EXPORTOPERAND                         
10015a35  IMPORTDATA                            
10015a51  SETOPERAND                            
10015a6d  COPY                                  
10015a85  ZERO                                  
10015a91  SETWORD                               
10015a9d  mSET                                  
10015bcd  zSET                                  
10015bd5  mINVK                                 
10015d19  zADD                                  
10015d5d  zSUB                                  
10015de9  zMACC32                               
10015e69  zSUB32                                
10015eb5  zADD32                                
10015f0d  zMULT32                               
10015f81  mMULT                                 
10016551  mADD                                  
1001664d  mSUB                                  
10016749  mOUT                                  
10016975  ssp_KeyInit_Sw                        
10016979  sspAesEncrypt_Sw                      
10016985  sspKeyExpansion_Sw                    
10016a99  sspAesEncryptKeyExp_Sw                
10016af5  sspAesEncryptBasic_Sw                 
10016b79  RoundKey_Sw                           
10016c29  AddRoundKeySubBytes_Sw                
10016c45  ShiftRows_Sw                          
10016c79  MixColumns_Sw                         
10016d05  FFMult_Sw                             
10016d29  sspAesDecrypt_Sw                      
10016da1  InvAddRoundKey_Sw                     
10016dc9  InvRoundKey_Sw                        
10016e8d  InvSubBytes_Sw                        
10016ea1  InvShiftRows_Sw                       
10016ed5  InvMixColumns_Sw                      
10016f58  FFMult2                               
10017058  FFMult3                               
10017158  RCon                                  
10017164  Sbox                                  
10017264  InvSbox                               
10017365  SSP_CCM_Auth_Sw                       
100174fd  SSP_CCM_Encrypt_Sw                    
100175ed  SSP_CTR_Encrypt_Sw                    
1001767d  SSP_CCM_Decrypt_Sw                    
10017771  SSP_CTR_Decrypt_Sw                    
10017839  SSP_CCM_InvAuth_Sw                    
10017895  SSP_CCM_Auth_Encrypt_Sw               
100178f5  SSP_CCM_InvAuth_Decrypt_Sw            
10017959  ECC_allocWorkzone                     
10017961  ECC_setWin                            
10017969  ECDSA_sign                            
10017b01  ECDSA_verif                           
10017dbd  ECC_keyGen                            
10017ded  ECDH_commonKey                        
10017e39  SHA256_updateW                        
10017e75  SHA256_round                          
10017ef1  SHA256_nextState                      
10017f49  SHA256_saveBuffer                     
10017ffd  SHA256_init                           
10018019  SHA256_process                        
10018089  SHA256_final                          
10018129  SHA256_full                           
10018315  RFHAL_AllocRatChan                    
1001833d  RFHAL_FreeRatChan                     
10018369  RFHAL_MapRatChansToInt                
10018391  RFHAL_RegisterRatChanCallback         
100183b9  RFHAL_InitDataQueue                   
100183c5  RFHAL_QueueRFDataEntries              
10018485  RFHAL_FreeNextTxDataEntry             
100184a9  RFHAL_AllocDataEntryQueue             
100184c5  RFHAL_FreeDataEntryQueue              
100184cd  RFHAL_GetNextDataEntry                
100184d1  RFHAL_GetTempDataEntry                
100184d5  RFHAL_NextDataEntryDone               
100184f9  RFHAL_AllocDataEntry                  
10018549  RFHAL_FreeDataEntry                   
10018551  RFHAL_BuildRingBuffer                 
100185e1  RFHAL_BuildDataEntryRingBuffer        
10018669  RFHAL_BuildLinkedBuffer               
10018a19  AesCcm_authEncrypt_Sw                 
10018a35  AesCcm_decryptAuth_Sw                 
10018a99  Aes_encrypt_Sw                        
10018ac5  Aes_decrypt_Sw                        
10018b09  AesCcm_getNumBlocks_Sw                
10018b0c  NIST256_p                             
10018b30  NIST256_r                             
10018b54  NIST256_a                             
10018b78  NIST256_b                             
10018b9c  NIST256_Gx                            
10018bc0  NIST256_Gy                            
10018ced  __exit                                
10018d6c  Fill1                                 
10019ffc  A3_rw                                 
10019ffd  __checksum_end_CommonROM              
10019ffe  A2_rw                                 
10019ffe  P1_ro_2                               
10019ffe  __checksum_CommonROM                  
2000434c  pGapDiscReq                           
20004350  pGapAdvertState                       
20004354  gapState                              
20004355  gattNumConns                          
20004356  gattTaskID                            
20004358  pfnPeripheralConnCBs                  
2000435c  pfnBondMgrCBs                         
20004364  serverInfoTbl                         
20004388  GATTServApp_TaskID                    
20004398  l2capFixedChannels                    
200043c8  l2capId                               
200043c9  smTaskID                              
200043cc  linkDBNumConns                        
20004404  pPairingParams                        
20004408  pfnResponderCBs                       
20004410  pBleEvtMask                           
20004418  pHciEvtMask2                          
20004420  rfEvent                               
20004428  hciTaskID                             
20004429  hciTestTaskID                         
2000442a  hciGapTaskID                          
2000442b  hciL2capTaskID                        
2000442c  hciSmpTaskID                          
2000442d  hciExtTaskID                          
20004434  bleDispatch_TaskID                    
20004435  rspBuf                                
20004470  timerHead                             
20004474  osal_last_timestamp                   
2000447c  ICall_dispatcher                      
20004480  ICall_enterCriticalSection            
20004484  ICall_leaveCriticalSection            
20004488  tasksEvents                           
200044ac  gapAppTaskID                          
200044ad  gapProfileRole                        
200044ae  gapDeviceAddrMode                     
200044af  gapAutoAdvPrivateAddrChange           
200044b0  gapPrivateAddrChangeTimeout           
20004510  slaveUpdateReq                        
20004518  slaveConnHandle                       
2000451c  pEstLink                              
20004520  pAuthLink                             
20004524  pfnCentralConnCBs                     
20004548  gapTaskID                             
20004549  gapUnwantedTaskID                     
2000454c  pfnPeripheralCBs                      
20004557  reqTaskId                             
200045f4  gattAppTaskID                         
200045f5  appTaskID                             
200045f6  l2capMtuSize                          
20004608  l2capTaskID                           
20004609  l2capNumChannels                      
2000460a  l2capNumDataPkts                      
2000460c  l2capChannels                         
2000462c  llUserConfig                          
20004650  maxPduSize                            
20004651  rfFeModeBias                          
20004652  maxNumTxDataBufs                      
20004654  advInfoExt                            
20004658  rfCmdHandle                           
2000465c  rfHandle                              
20004660  rfDrvTblPtr                           
20004664  llConnectionExt                       
20004668  trngDrvTblPtr                         
2000466c  SysBootMsg                            
20004670  sclkSrc                               
20004674  rfMode                                
20004684  rfParams                              
20004698  rfSetup                               
200046b0  rfObject                              
20004748  assertSubcause                        
20004749  legacyMode                            
2000474c  halAssertCback                        
20004751  osal_entity                           
20004758  osal_qHead                            
2000475c  osal_eventloop_hook                   
20004760  osal_semaphore                        
20004764  osal_tickperiod                       
20004768  osal_max_msecs                        
20004778  baseTaskID                            
2000477c  cbTimers                              
200047f8  OSAL_timeSeconds                      
200047fc  pwrmgr_initialized                    
200047fe  pwrmgr_attribute                      
20004811  gapBond_removeLRUBond                 
2000483a  gapBond_lruBondList                   
200048e8  A4_rw_1                               
200048e8  RAM_BASE_ADDR                         
200048fc  P2_zi_1                               
200048fc  scanDataEntry                         
200049dc  scanDataQueue                         
200049ec  advInfo                               
20004a8c  wlTable                               
20004b10  wlTableScan                           
20004b94  initDataEntry                         
20004bcc  initDataQueue                         
20004bdc  advDataEntry                          
20004c14  advDataQueue                          
20004c24  advCmd                                
20004c6c  ownPublicAddr                         
20004c74  ownRandomAddr                         
20004c7c  ownSavedPublicAddr                    
20004c84  LL_TaskID                             
20004c85  maxTxPwrForDTM                        
20004c86  onePktPerEvt                          
20004c87  numComplPktsLimit                     
20004c88  numComplPktsFlush                     
20004c89  slOverride                            
20004c8a  rxFifoFlowCtrl                        
20004c8b  numTxDataBufs                         
20004c8c  verInfo                               
20004c94  rfCfgAdiVal                           
20004c96  sleepDelay                            
20004c98  buildInfo                             
20004c9c  peerInfo                              
20004ca8  chanMapUpdate                         
20004cb0  llConns                               
20004cb8  llState                               
20004cb9  curTxPowerVal                         
20004cba  numComplPkts                          
20004cbb  fastTxRespTime                        
20004cbc  maxNumConns                           
20004cbe  postRfOperations                      
20004cc0  rssiCorrection                        
20004cc4  taskEndAction                         
20004cf0  initParam                             
20004d14  scanParam                             
20004d38  slvParam                              
20004d58  advParam                              
20004d78  txModemTestCmd                        
20004d94  scanInfo                              
20004db0  initCmd                               
20004dc8  connReqData                           
20004de0  slvCmd                                
20004df8  scanCmd                               
20004e10  scanOutput                            
20004e28  trxTestCmd                            
20004e40  rxModemTestCmd                        
20004e58  initInfo                              
20004e70  connOutput                            
20004e84  rxTestParam                           
20004e98  advOutput                             
20004ea8  txTestParam                           
20004eb8  initOutput                            
20004ec4  rxTestOut                             
20004ed0  deviceFeatureSet                      
20004edc  dtmInfo                               
20004ee8  cachedTRNGdata                        
20004ef4  llTaskList                            
20004f00  pHciEvtMask                           
20004f08  bleEvtMask                            
20004f0a  taskEndStatus                         
20004f0c  rxDataQ                               
20004f10  rxRingBuf                             
20004f14  mstCmd                                
20004f18  mstParam                              
20004f1c  txDataQ                               
20004f20  txTestOut                             
20004f24  ctrlToHostEnable                      
20004f26  numHostBufs                           
20004f28  hciPTMenabled                         
20004f2c  A4_rw                                 
20004f2c  COMMON_RAM_BASE_ADDR                  
20004f40  P2_rw                                 
20004f40  P2_s0                                 
20004f40  win                                   
20004f44  workzone                              
20004f48  data_p                                
20004f4c  data_r                                
20004f50  data_a                                
20004f54  inScalar                              
20004f58  inPointX                              
20004f5c  inPointY                              
20004f60  outPointX                             
20004f64  outPointY                             
20004f68  SCAL                                  
20004f6c  EXPX                                  
20004f70  EXPY                                  
20004f74  EXPZ                                  
20004f78  EXPW                                  
20004f7c  ACCX                                  
20004f80  ACCY                                  
20004f84  ACCZ                                  
20004f88  TMP1                                  
20004f8c  TMP2                                  
20004f90  TMP3                                  
20004f94  TMP4                                  
20004f98  TMP5                                  
20004f9c  TMP6                                  
20004fa0  data_Gx                               
20004fa4  data_Gy                               
20004fa8  data_b                                
20004fac  P2_zi                                 
20004fac  ratChanInfo                           
20004fcc  fwInfoCmd                             
20004fd8  MSBMOD                                
20004fdc  aux64                                 
20004fe4  MOD                                   
20004fe8  LEN                                   
20004ffc  pSspAesEncrypt_Sw                     
ffffffff  __TI_pprof_out_hndl                   
ffffffff  __TI_prof_data_size                   
ffffffff  __TI_prof_data_start                  
ffffffff  __binit__                             
ffffffff  __c_args__                            
ffffffff  binit                                 
UNDEFED   SHT$$INIT_ARRAY$$Base                 
UNDEFED   SHT$$INIT_ARRAY$$Limit                

[1144 symbols]
